
out.elf:     file format elf32-tradlittlemips


Disassembly of section .config_BFC02FF0:

bfc02ff0 <__config_BFC02FF0>:
bfc02ff0:	ff ff fe fa                                         ....

Disassembly of section .config_BFC02FF4:

bfc02ff4 <__config_BFC02FF4>:
bfc02ff4:	d9 79 f8 ff                                         .y..

Disassembly of section .config_BFC02FF8:

bfc02ff8 <__config_BFC02FF8>:
bfc02ff8:	db ce 6c ff                                         ..l.

Disassembly of section .config_BFC02FFC:

bfc02ffc <__config_BFC02FFC>:
bfc02ffc:	ff ff ff 7e                                         ...~

Disassembly of section .reset:

bd001970 <_reset>:
bd001970:	0f40065e 	jal	bd001978 <_startup>
bd001974:	00000000 	nop

bd001978 <_startup>:
bd001978:	401a6000 	mfc0	k0,c0_status
bd00197c:	7f5a04c0 	ext	k0,k0,0x13,0x1
bd001980:	13400005 	beqz	k0,bd001998 <_no_nmi>
bd001984:	00000000 	nop
bd001988:	3c1a9d01 	lui	k0,0x9d01
bd00198c:	275a904c 	addiu	k0,k0,-28596
bd001990:	03400008 	jr	k0
bd001994:	00000000 	nop

bd001998 <_no_nmi>:
bd001998:	3c1da002 	lui	sp,0xa002
bd00199c:	27bdfff8 	addiu	sp,sp,-8
bd0019a0:	3c1ca000 	lui	gp,0xa000
bd0019a4:	279c7ff0 	addiu	gp,gp,32752
bd0019a8:	40096002 	mfc0	t1,c0_srsctl
bd0019ac:	01205820 	add	t3,t1,zero
bd0019b0:	7d2a1e80 	ext	t2,t1,0x1a,0x4
bd0019b4:	7d494984 	ins	t1,t2,0x6,0x4
bd0019b8:	40896002 	mtc0	t1,c0_srsctl
bd0019bc:	000000c0 	ehb
bd0019c0:	41dce000 	wrpgpr	gp,gp
bd0019c4:	408b6002 	mtc0	t3,c0_srsctl
bd0019c8:	000000c0 	ehb
bd0019cc:	3c089d01 	lui	t0,0x9d01
bd0019d0:	250890bc 	addiu	t0,t0,-28484
bd0019d4:	0100f809 	jalr	t0
bd0019d8:	00000000 	nop
bd0019dc:	3c08a000 	lui	t0,0xa000
bd0019e0:	25080008 	addiu	t0,t0,8
bd0019e4:	3c09a000 	lui	t1,0xa000
bd0019e8:	25290028 	addiu	t1,t1,40
bd0019ec:	10000006 	b	bd001a08 <_bss_check>
bd0019f0:	00000000 	nop

bd0019f4 <_bss_init>:
bd0019f4:	ad000000 	sw	zero,0(t0)
bd0019f8:	ad000004 	sw	zero,4(t0)
bd0019fc:	ad000008 	sw	zero,8(t0)
bd001a00:	ad00000c 	sw	zero,12(t0)
bd001a04:	25080010 	addiu	t0,t0,16

bd001a08 <_bss_check>:
bd001a08:	0109082b 	sltu	at,t0,t1
bd001a0c:	1420fff9 	bnez	at,bd0019f4 <_bss_init>
bd001a10:	00000000 	nop

bd001a14 <_dinit_init>:
bd001a14:	3c089d00 	lui	t0,0x9d00
bd001a18:	25084b58 	addiu	t0,t0,19288
bd001a1c:	8d090000 	lw	t1,0(t0)
bd001a20:	11200018 	beqz	t1,bd001a84 <_dinit_end+0x18>
bd001a24:	25080004 	addiu	t0,t0,4
bd001a28:	8d0a0000 	lw	t2,0(t0)
bd001a2c:	25080004 	addiu	t0,t0,4
bd001a30:	8d0b0000 	lw	t3,0(t0)
bd001a34:	11600009 	beqz	t3,bd001a5c <_dinit_clear>
bd001a38:	25080004 	addiu	t0,t0,4

bd001a3c <_dinit_copy>:
bd001a3c:	910c0000 	lbu	t4,0(t0)
bd001a40:	254affff 	addiu	t2,t2,-1
bd001a44:	25080001 	addiu	t0,t0,1
bd001a48:	a12c0000 	sb	t4,0(t1)
bd001a4c:	1540fffb 	bnez	t2,bd001a3c <_dinit_copy>
bd001a50:	25290001 	addiu	t1,t1,1
bd001a54:	10000005 	b	bd001a6c <_dinit_end>
bd001a58:	00000000 	nop

bd001a5c <_dinit_clear>:
bd001a5c:	a1200000 	sb	zero,0(t1)
bd001a60:	254affff 	addiu	t2,t2,-1
bd001a64:	1540fffd 	bnez	t2,bd001a5c <_dinit_clear>
bd001a68:	25290001 	addiu	t1,t1,1

bd001a6c <_dinit_end>:
bd001a6c:	25080003 	addiu	t0,t0,3
bd001a70:	240afffc 	li	t2,-4
bd001a74:	01484024 	and	t0,t2,t0
bd001a78:	8d090000 	lw	t1,0(t0)
bd001a7c:	1520ffe7 	bnez	t1,bd001a1c <_dinit_init+0x8>
bd001a80:	00000000 	nop
bd001a84:	3c090000 	lui	t1,0x0
bd001a88:	25290000 	addiu	t1,t1,0
bd001a8c:	11200010 	beqz	t1,bd001ad0 <_ramfunc_done>
bd001a90:	00000000 	nop
bd001a94:	3c090002 	lui	t1,0x2
bd001a98:	25290000 	addiu	t1,t1,0
bd001a9c:	3c0abf88 	lui	t2,0xbf88
bd001aa0:	254a2010 	addiu	t2,t2,8208
bd001aa4:	ad490000 	sw	t1,0(t2)
bd001aa8:	3c090002 	lui	t1,0x2
bd001aac:	25290000 	addiu	t1,t1,0
bd001ab0:	3c0abf88 	lui	t2,0xbf88
bd001ab4:	254a2020 	addiu	t2,t2,8224
bd001ab8:	ad490000 	sw	t1,0(t2)
bd001abc:	3c090002 	lui	t1,0x2
bd001ac0:	25290000 	addiu	t1,t1,0
bd001ac4:	3c0abf88 	lui	t2,0xbf88
bd001ac8:	254a2030 	addiu	t2,t2,8240
bd001acc:	ad490000 	sw	t1,0(t2)

bd001ad0 <_ramfunc_done>:
bd001ad0:	40804800 	mtc0	zero,c0_count
bd001ad4:	240affff 	li	t2,-1
bd001ad8:	408a5800 	mtc0	t2,c0_compare
bd001adc:	3c080040 	lui	t0,0x40
bd001ae0:	400a6000 	mfc0	t2,c0_status
bd001ae4:	010a5025 	or	t2,t0,t2
bd001ae8:	408a6000 	mtc0	t2,c0_status
bd001aec:	3c099d00 	lui	t1,0x9d00
bd001af0:	25290000 	addiu	t1,t1,0
bd001af4:	000000c0 	ehb
bd001af8:	40897801 	mtc0	t1,c0_ebase
bd001afc:	3c090000 	lui	t1,0x0
bd001b00:	25290001 	addiu	t1,t1,1
bd001b04:	240a0000 	li	t2,0
bd001b08:	7d2a4944 	ins	t2,t1,0x5,0x5
bd001b0c:	408a6001 	mtc0	t2,c0_intctl
bd001b10:	3c090080 	lui	t1,0x80
bd001b14:	40896800 	mtc0	t1,c0_cause
bd001b18:	40088000 	mfc0	t0,c0_config
bd001b1c:	7d090580 	ext	t1,t0,0x16,0x1
bd001b20:	00094c40 	sll	t1,t1,0x11
bd001b24:	40086000 	mfc0	t0,c0_status
bd001b28:	3c010058 	lui	at,0x58
bd001b2c:	01014024 	and	t0,t0,at
bd001b30:	01284025 	or	t0,t1,t0
bd001b34:	40886000 	mtc0	t0,c0_status
bd001b38:	000000c0 	ehb
bd001b3c:	3c089d01 	lui	t0,0x9d01
bd001b40:	250890c4 	addiu	t0,t0,-28476
bd001b44:	0100f809 	jalr	t0
bd001b48:	00000000 	nop
bd001b4c:	40086000 	mfc0	t0,c0_status
bd001b50:	3c01ffbf 	lui	at,0xffbf
bd001b54:	3421ffff 	ori	at,at,0xffff
bd001b58:	01014024 	and	t0,t0,at
bd001b5c:	40886000 	mtc0	t0,c0_status
bd001b60:	30840000 	andi	a0,a0,0x0
bd001b64:	30a50000 	andi	a1,a1,0x0
bd001b68:	3c089d01 	lui	t0,0x9d01
bd001b6c:	25088be4 	addiu	t0,t0,-29724
bd001b70:	01000008 	jr	t0
bd001b74:	00000000 	nop

Disassembly of section .bev_excpt:

bd001cf0 <_bev_exception>:
bd001cf0:	3c1a9d01 	lui	k0,0x9d01
bd001cf4:	275a8d74 	addiu	k0,k0,-29324
bd001cf8:	03400008 	jr	k0
bd001cfc:	00000000 	nop

Disassembly of section .app_excpt:

9d000180 <_gen_exception>:
9d000180:	3c1a9d01 	lui	k0,0x9d01
9d000184:	275a809c 	addiu	k0,k0,-32612
9d000188:	03400008 	jr	k0
9d00018c:	00000000 	nop

Disassembly of section .vector_0:

9d000200 <__vector_dispatch_0>:
9d000200:	0b402381 	j	9d008e04 <.LFE0>
9d000204:	00000000 	nop

Disassembly of section .vector_1:

9d000220 <__vector_dispatch_1>:
9d000220:	0b402381 	j	9d008e04 <.LFE0>
9d000224:	00000000 	nop

Disassembly of section .vector_2:

9d000240 <__vector_dispatch_2>:
9d000240:	0b402381 	j	9d008e04 <.LFE0>
9d000244:	00000000 	nop

Disassembly of section .vector_3:

9d000260 <__vector_dispatch_3>:
9d000260:	0b400798 	j	9d001e60 <F_EdgeISR>
9d000264:	00000000 	nop

Disassembly of section .vector_4:

9d000280 <__vector_dispatch_4>:
9d000280:	0b402381 	j	9d008e04 <.LFE0>
9d000284:	00000000 	nop

Disassembly of section .vector_5:

9d0002a0 <__vector_dispatch_5>:
9d0002a0:	0b402381 	j	9d008e04 <.LFE0>
9d0002a4:	00000000 	nop

Disassembly of section .vector_6:

9d0002c0 <__vector_dispatch_6>:
9d0002c0:	0b402381 	j	9d008e04 <.LFE0>
9d0002c4:	00000000 	nop

Disassembly of section .vector_7:

9d0002e0 <__vector_dispatch_7>:
9d0002e0:	0b4007f8 	j	9d001fe0 <RS1_EdgeISR>
9d0002e4:	00000000 	nop

Disassembly of section .vector_8:

9d000300 <__vector_dispatch_8>:
9d000300:	0b402381 	j	9d008e04 <.LFE0>
9d000304:	00000000 	nop

Disassembly of section .vector_9:

9d000320 <__vector_dispatch_9>:
9d000320:	0b402381 	j	9d008e04 <.LFE0>
9d000324:	00000000 	nop

Disassembly of section .vector_10:

9d000340 <__vector_dispatch_10>:
9d000340:	0b402381 	j	9d008e04 <.LFE0>
9d000344:	00000000 	nop

Disassembly of section .vector_11:

9d000360 <__vector_dispatch_11>:
9d000360:	0b40081f 	j	9d00207c <RS2_EdgeISR>
9d000364:	00000000 	nop

Disassembly of section .vector_12:

9d000380 <__vector_dispatch_12>:
9d000380:	0b402381 	j	9d008e04 <.LFE0>
9d000384:	00000000 	nop

Disassembly of section .vector_13:

9d0003a0 <__vector_dispatch_13>:
9d0003a0:	0b402381 	j	9d008e04 <.LFE0>
9d0003a4:	00000000 	nop

Disassembly of section .vector_14:

9d0003c0 <__vector_dispatch_14>:
9d0003c0:	0b402381 	j	9d008e04 <.LFE0>
9d0003c4:	00000000 	nop

Disassembly of section .vector_15:

9d0003e0 <__vector_dispatch_15>:
9d0003e0:	0b400860 	j	9d002180 <RS3_EdgeISR>
9d0003e4:	00000000 	nop

Disassembly of section .vector_16:

9d000400 <__vector_dispatch_16>:
9d000400:	0b402381 	j	9d008e04 <.LFE0>
9d000404:	00000000 	nop

Disassembly of section .vector_17:

9d000420 <__vector_dispatch_17>:
9d000420:	0b402381 	j	9d008e04 <.LFE0>
9d000424:	00000000 	nop

Disassembly of section .vector_18:

9d000440 <__vector_dispatch_18>:
9d000440:	0b402381 	j	9d008e04 <.LFE0>
9d000444:	00000000 	nop

Disassembly of section .vector_19:

9d000460 <__vector_dispatch_19>:
9d000460:	0b402381 	j	9d008e04 <.LFE0>
9d000464:	00000000 	nop

Disassembly of section .vector_20:

9d000480 <__vector_dispatch_20>:
9d000480:	0b402381 	j	9d008e04 <.LFE0>
9d000484:	00000000 	nop

Disassembly of section .vector_21:

9d0004a0 <__vector_dispatch_21>:
9d0004a0:	0b402381 	j	9d008e04 <.LFE0>
9d0004a4:	00000000 	nop

Disassembly of section .vector_22:

9d0004c0 <__vector_dispatch_22>:
9d0004c0:	0b402381 	j	9d008e04 <.LFE0>
9d0004c4:	00000000 	nop

Disassembly of section .vector_23:

9d0004e0 <__vector_dispatch_23>:
9d0004e0:	0b402381 	j	9d008e04 <.LFE0>
9d0004e4:	00000000 	nop

Disassembly of section .vector_24:

9d000500 <__vector_dispatch_24>:
9d000500:	0b402381 	j	9d008e04 <.LFE0>
9d000504:	00000000 	nop

Disassembly of section .vector_25:

9d000520 <__vector_dispatch_25>:
9d000520:	0b402381 	j	9d008e04 <.LFE0>
9d000524:	00000000 	nop

Disassembly of section .vector_26:

9d000540 <__vector_dispatch_26>:
9d000540:	0b402381 	j	9d008e04 <.LFE0>
9d000544:	00000000 	nop

Disassembly of section .vector_27:

9d000560 <__vector_dispatch_27>:
9d000560:	0b402381 	j	9d008e04 <.LFE0>
9d000564:	00000000 	nop

Disassembly of section .vector_28:

9d000580 <__vector_dispatch_28>:
9d000580:	0b402381 	j	9d008e04 <.LFE0>
9d000584:	00000000 	nop

Disassembly of section .vector_29:

9d0005a0 <__vector_dispatch_29>:
9d0005a0:	0b402381 	j	9d008e04 <.LFE0>
9d0005a4:	00000000 	nop

Disassembly of section .vector_30:

9d0005c0 <__vector_dispatch_30>:
9d0005c0:	0b402381 	j	9d008e04 <.LFE0>
9d0005c4:	00000000 	nop

Disassembly of section .vector_31:

9d0005e0 <__vector_dispatch_31>:
9d0005e0:	0b402381 	j	9d008e04 <.LFE0>
9d0005e4:	00000000 	nop

Disassembly of section .vector_32:

9d000600 <__vector_dispatch_32>:
9d000600:	0b402381 	j	9d008e04 <.LFE0>
9d000604:	00000000 	nop

Disassembly of section .vector_33:

9d000620 <__vector_dispatch_33>:
9d000620:	0b402381 	j	9d008e04 <.LFE0>
9d000624:	00000000 	nop

Disassembly of section .vector_34:

9d000640 <__vector_dispatch_34>:
9d000640:	0b402381 	j	9d008e04 <.LFE0>
9d000644:	00000000 	nop

Disassembly of section .vector_35:

9d000660 <__vector_dispatch_35>:
9d000660:	0b402381 	j	9d008e04 <.LFE0>
9d000664:	00000000 	nop

Disassembly of section .vector_36:

9d000680 <__vector_dispatch_36>:
9d000680:	0b402381 	j	9d008e04 <.LFE0>
9d000684:	00000000 	nop

Disassembly of section .vector_37:

9d0006a0 <__vector_dispatch_37>:
9d0006a0:	0b402381 	j	9d008e04 <.LFE0>
9d0006a4:	00000000 	nop

Disassembly of section .vector_38:

9d0006c0 <__vector_dispatch_38>:
9d0006c0:	0b402381 	j	9d008e04 <.LFE0>
9d0006c4:	00000000 	nop

Disassembly of section .vector_39:

9d0006e0 <__vector_dispatch_39>:
9d0006e0:	0b402381 	j	9d008e04 <.LFE0>
9d0006e4:	00000000 	nop

Disassembly of section .vector_40:

9d000700 <__vector_dispatch_40>:
9d000700:	0b402381 	j	9d008e04 <.LFE0>
9d000704:	00000000 	nop

Disassembly of section .vector_41:

9d000720 <__vector_dispatch_41>:
9d000720:	0b402381 	j	9d008e04 <.LFE0>
9d000724:	00000000 	nop

Disassembly of section .vector_42:

9d000740 <__vector_dispatch_42>:
9d000740:	0b402381 	j	9d008e04 <.LFE0>
9d000744:	00000000 	nop

Disassembly of section .vector_43:

9d000760 <__vector_dispatch_43>:
9d000760:	0b402381 	j	9d008e04 <.LFE0>
9d000764:	00000000 	nop

Disassembly of section .vector_44:

9d000780 <__vector_dispatch_44>:
9d000780:	0b402381 	j	9d008e04 <.LFE0>
9d000784:	00000000 	nop

Disassembly of section .vector_45:

9d0007a0 <__vector_dispatch_45>:
9d0007a0:	0b402381 	j	9d008e04 <.LFE0>
9d0007a4:	00000000 	nop

Disassembly of section .vector_46:

9d0007c0 <__vector_dispatch_46>:
9d0007c0:	0b402381 	j	9d008e04 <.LFE0>
9d0007c4:	00000000 	nop

Disassembly of section .vector_47:

9d0007e0 <__vector_dispatch_47>:
9d0007e0:	0b402381 	j	9d008e04 <.LFE0>
9d0007e4:	00000000 	nop

Disassembly of section .vector_48:

9d000800 <__vector_dispatch_48>:
9d000800:	0b402381 	j	9d008e04 <.LFE0>
9d000804:	00000000 	nop

Disassembly of section .vector_49:

9d000820 <__vector_dispatch_49>:
9d000820:	0b402381 	j	9d008e04 <.LFE0>
9d000824:	00000000 	nop

Disassembly of section .vector_50:

9d000840 <__vector_dispatch_50>:
9d000840:	0b402381 	j	9d008e04 <.LFE0>
9d000844:	00000000 	nop

Disassembly of section .vector_51:

9d000860 <__vector_dispatch_51>:
9d000860:	0b402381 	j	9d008e04 <.LFE0>
9d000864:	00000000 	nop

Disassembly of section ._debug_exception:

bfc00480 <__DbgExecReturn>:
bfc00480:	409bf800 	mtc0	k1,c0_desave
bfc00484:	000000c0 	ehb
bfc00488:	3c1b9d01 	lui	k1,0x9d01
bfc0048c:	277b8e4c 	addiu	k1,k1,-29108
bfc00490:	13600002 	beqz	k1,bfc0049c <__DbgExecReturn+0x1c>
bfc00494:	00000000 	nop
bfc00498:	409bc000 	mtc0	k1,c0_depc
bfc0049c:	401bf800 	mfc0	k1,c0_desave
bfc004a0:	000000c0 	ehb
bfc004a4:	4200001f 	deret
bfc004a8:	00000000 	nop

Disassembly of section .text:

9d001e00 <clear_stick>:
// [flash1,sweep11,sweep21,sweep31,flash2,sweep12,sweep22,sweep32] 
//[flash1, sensor1sweep1, senser2sweep1,sensor3sweep1,flash2,sensor1sweep2,sensor2sweep2,sensor3sweep2]
//flash1(vertical) < flash2(horizontal)
//Set INT0 start counting flash time at rising edge 

void clear_stick(int* s){
9d001e00:	27bdfff0 	addiu	sp,sp,-16
9d001e04:	afbe000c 	sw	s8,12(sp)
9d001e08:	03a0f021 	move	s8,sp
9d001e0c:	afc40010 	sw	a0,16(s8)
	int i;
	for(i=0 ; i<8 ; i++){
9d001e10:	afc00000 	sw	zero,0(s8)
9d001e14:	0b40078f 	j	9d001e3c <clear_stick+0x3c>
9d001e18:	00000000 	nop
		s[i] = 0;
9d001e1c:	8fc20000 	lw	v0,0(s8)
9d001e20:	00021080 	sll	v0,v0,0x2
9d001e24:	8fc30010 	lw	v1,16(s8)
9d001e28:	00621021 	addu	v0,v1,v0
9d001e2c:	ac400000 	sw	zero,0(v0)
//flash1(vertical) < flash2(horizontal)
//Set INT0 start counting flash time at rising edge 

void clear_stick(int* s){
	int i;
	for(i=0 ; i<8 ; i++){
9d001e30:	8fc20000 	lw	v0,0(s8)
9d001e34:	24420001 	addiu	v0,v0,1
9d001e38:	afc20000 	sw	v0,0(s8)
9d001e3c:	8fc20000 	lw	v0,0(s8)
9d001e40:	28420008 	slti	v0,v0,8
9d001e44:	1440fff5 	bnez	v0,9d001e1c <clear_stick+0x1c>
9d001e48:	00000000 	nop
		s[i] = 0;
	}
}
9d001e4c:	03c0e821 	move	sp,s8
9d001e50:	8fbe000c 	lw	s8,12(sp)
9d001e54:	27bd0010 	addiu	sp,sp,16
9d001e58:	03e00008 	jr	ra
9d001e5c:	00000000 	nop

9d001e60 <F_EdgeISR>:

void __ISR(_EXTERNAL_0_VECTOR, IPL2SOFT) F_EdgeISR(void){ 
9d001e60:	415de800 	rdpgpr	sp,sp
9d001e64:	401a7000 	mfc0	k0,c0_epc
9d001e68:	401b6000 	mfc0	k1,c0_status
9d001e6c:	27bdff80 	addiu	sp,sp,-128
9d001e70:	afba007c 	sw	k0,124(sp)
9d001e74:	401a6002 	mfc0	k0,c0_srsctl
9d001e78:	afbb0078 	sw	k1,120(sp)
9d001e7c:	afba0074 	sw	k0,116(sp)
9d001e80:	7c1b7844 	ins	k1,zero,0x1,0xf
9d001e84:	377b0800 	ori	k1,k1,0x800
9d001e88:	409b6000 	mtc0	k1,c0_status
9d001e8c:	afbf0064 	sw	ra,100(sp)
9d001e90:	afbe0060 	sw	s8,96(sp)
9d001e94:	afb9005c 	sw	t9,92(sp)
9d001e98:	afb80058 	sw	t8,88(sp)
9d001e9c:	afaf0054 	sw	t7,84(sp)
9d001ea0:	afae0050 	sw	t6,80(sp)
9d001ea4:	afad004c 	sw	t5,76(sp)
9d001ea8:	afac0048 	sw	t4,72(sp)
9d001eac:	afab0044 	sw	t3,68(sp)
9d001eb0:	afaa0040 	sw	t2,64(sp)
9d001eb4:	afa9003c 	sw	t1,60(sp)
9d001eb8:	afa80038 	sw	t0,56(sp)
9d001ebc:	afa70034 	sw	a3,52(sp)
9d001ec0:	afa60030 	sw	a2,48(sp)
9d001ec4:	afa5002c 	sw	a1,44(sp)
9d001ec8:	afa40028 	sw	a0,40(sp)
9d001ecc:	afa30024 	sw	v1,36(sp)
9d001ed0:	afa20020 	sw	v0,32(sp)
9d001ed4:	afa1001c 	sw	at,28(sp)
9d001ed8:	00001012 	mflo	v0
9d001edc:	afa2006c 	sw	v0,108(sp)
9d001ee0:	00001810 	mfhi	v1
9d001ee4:	afa30068 	sw	v1,104(sp)
9d001ee8:	03a0f021 	move	s8,sp

float test = _CP0_GET_COUNT()*0.025;
9d001eec:	40024800 	mfc0	v0,c0_count
9d001ef0:	00402021 	move	a0,v0
9d001ef4:	0f402337 	jal	9d008cdc <.LFE4>
9d001ef8:	00000000 	nop
9d001efc:	00401821 	move	v1,v0
9d001f00:	3c029d01 	lui	v0,0x9d01
9d001f04:	00602021 	move	a0,v1
9d001f08:	8c45903c 	lw	a1,-28612(v0)
9d001f0c:	0f401c9d 	jal	9d007274 <__mulsf3>
9d001f10:	00000000 	nop
9d001f14:	afc20010 	sw	v0,16(s8)

sprintf(buffer,"%.1f\n\r",test);
9d001f18:	3c02a000 	lui	v0,0xa000
9d001f1c:	24440640 	addiu	a0,v0,1600
9d001f20:	3c029d01 	lui	v0,0x9d01
9d001f24:	24459034 	addiu	a1,v0,-28620
9d001f28:	8fc60010 	lw	a2,16(s8)
9d001f2c:	0f402293 	jal	9d008a4c <_sprintf_fF>
9d001f30:	00000000 	nop
			        NU32_WriteUART3(buffer);
9d001f34:	3c02a000 	lui	v0,0xa000
9d001f38:	24440640 	addiu	a0,v0,1600
9d001f3c:	0f401987 	jal	9d00661c <NU32_WriteUART3>
9d001f40:	00000000 	nop
	// 			j1++;
	// 			count++;
	// 			break;
	// 		}
	// 	}
	IFS0bits.INT0IF = 0;
9d001f44:	3c03bf88 	lui	v1,0xbf88
9d001f48:	8c621030 	lw	v0,4144(v1)
9d001f4c:	7c0218c4 	ins	v0,zero,0x3,0x1
9d001f50:	ac621030 	sw	v0,4144(v1)
} 
9d001f54:	03c0e821 	move	sp,s8
9d001f58:	8fa2006c 	lw	v0,108(sp)
9d001f5c:	00400013 	mtlo	v0
9d001f60:	8fa30068 	lw	v1,104(sp)
9d001f64:	00600011 	mthi	v1
9d001f68:	8fbf0064 	lw	ra,100(sp)
9d001f6c:	8fbe0060 	lw	s8,96(sp)
9d001f70:	8fb9005c 	lw	t9,92(sp)
9d001f74:	8fb80058 	lw	t8,88(sp)
9d001f78:	8faf0054 	lw	t7,84(sp)
9d001f7c:	8fae0050 	lw	t6,80(sp)
9d001f80:	8fad004c 	lw	t5,76(sp)
9d001f84:	8fac0048 	lw	t4,72(sp)
9d001f88:	8fab0044 	lw	t3,68(sp)
9d001f8c:	8faa0040 	lw	t2,64(sp)
9d001f90:	8fa9003c 	lw	t1,60(sp)
9d001f94:	8fa80038 	lw	t0,56(sp)
9d001f98:	8fa70034 	lw	a3,52(sp)
9d001f9c:	8fa60030 	lw	a2,48(sp)
9d001fa0:	8fa5002c 	lw	a1,44(sp)
9d001fa4:	8fa40028 	lw	a0,40(sp)
9d001fa8:	8fa30024 	lw	v1,36(sp)
9d001fac:	8fa20020 	lw	v0,32(sp)
9d001fb0:	8fa1001c 	lw	at,28(sp)
9d001fb4:	41606000 	di
9d001fb8:	000000c0 	ehb
9d001fbc:	8fba007c 	lw	k0,124(sp)
9d001fc0:	8fbb0078 	lw	k1,120(sp)
9d001fc4:	409a7000 	mtc0	k0,c0_epc
9d001fc8:	8fba0074 	lw	k0,116(sp)
9d001fcc:	27bd0080 	addiu	sp,sp,128
9d001fd0:	409a6002 	mtc0	k0,c0_srsctl
9d001fd4:	41dde800 	wrpgpr	sp,sp
9d001fd8:	409b6000 	mtc0	k1,c0_status
9d001fdc:	42000018 	eret

9d001fe0 <RS1_EdgeISR>:

void __ISR(_EXTERNAL_1_VECTOR, IPL3SOFT) RS1_EdgeISR(void){	
9d001fe0:	415de800 	rdpgpr	sp,sp
9d001fe4:	401a7000 	mfc0	k0,c0_epc
9d001fe8:	401b6000 	mfc0	k1,c0_status
9d001fec:	27bdffe0 	addiu	sp,sp,-32
9d001ff0:	afba001c 	sw	k0,28(sp)
9d001ff4:	401a6002 	mfc0	k0,c0_srsctl
9d001ff8:	afbb0018 	sw	k1,24(sp)
9d001ffc:	afba0014 	sw	k0,20(sp)
9d002000:	7c1b7844 	ins	k1,zero,0x1,0xf
9d002004:	377b0c00 	ori	k1,k1,0xc00
9d002008:	409b6000 	mtc0	k1,c0_status
9d00200c:	afbf000c 	sw	ra,12(sp)
9d002010:	afbe0008 	sw	s8,8(sp)
9d002014:	afa30004 	sw	v1,4(sp)
9d002018:	afa20000 	sw	v0,0(sp)
9d00201c:	03a0f021 	move	s8,sp
_CP0_SET_COUNT(0);
9d002020:	00001021 	move	v0,zero
9d002024:	40824800 	mtc0	v0,c0_count
9d002028:	000000c0 	ehb
		// 	    	count++;
		// 	    	break;
		// 	    }
		// }
	
	IFS0bits.INT1IF = 0;
9d00202c:	3c03bf88 	lui	v1,0xbf88
9d002030:	8c621030 	lw	v0,4144(v1)
9d002034:	7c0239c4 	ins	v0,zero,0x7,0x1
9d002038:	ac621030 	sw	v0,4144(v1)
}
9d00203c:	03c0e821 	move	sp,s8
9d002040:	8fbf000c 	lw	ra,12(sp)
9d002044:	8fbe0008 	lw	s8,8(sp)
9d002048:	8fa30004 	lw	v1,4(sp)
9d00204c:	8fa20000 	lw	v0,0(sp)
9d002050:	41606000 	di
9d002054:	000000c0 	ehb
9d002058:	8fba001c 	lw	k0,28(sp)
9d00205c:	8fbb0018 	lw	k1,24(sp)
9d002060:	409a7000 	mtc0	k0,c0_epc
9d002064:	8fba0014 	lw	k0,20(sp)
9d002068:	27bd0020 	addiu	sp,sp,32
9d00206c:	409a6002 	mtc0	k0,c0_srsctl
9d002070:	41dde800 	wrpgpr	sp,sp
9d002074:	409b6000 	mtc0	k1,c0_status
9d002078:	42000018 	eret

9d00207c <RS2_EdgeISR>:

void __ISR(_EXTERNAL_2_VECTOR, IPL3SOFT) RS2_EdgeISR(void){
9d00207c:	415de800 	rdpgpr	sp,sp
9d002080:	401a7000 	mfc0	k0,c0_epc
9d002084:	401b6000 	mfc0	k1,c0_status
9d002088:	27bdffe0 	addiu	sp,sp,-32
9d00208c:	afba001c 	sw	k0,28(sp)
9d002090:	401a6002 	mfc0	k0,c0_srsctl
9d002094:	afbb0018 	sw	k1,24(sp)
9d002098:	afba0014 	sw	k0,20(sp)
9d00209c:	7c1b7844 	ins	k1,zero,0x1,0xf
9d0020a0:	377b0c00 	ori	k1,k1,0xc00
9d0020a4:	409b6000 	mtc0	k1,c0_status
9d0020a8:	afbf000c 	sw	ra,12(sp)
9d0020ac:	afbe0008 	sw	s8,8(sp)
9d0020b0:	afa30004 	sw	v1,4(sp)
9d0020b4:	afa20000 	sw	v0,0(sp)
9d0020b8:	03a0f021 	move	s8,sp
	if(s1 == 1){
9d0020bc:	8f838020 	lw	v1,-32736(gp)
9d0020c0:	24020001 	li	v0,1
9d0020c4:	1462000b 	bne	v1,v0,9d0020f4 <RS2_EdgeISR+0x78>
9d0020c8:	00000000 	nop
		time[2] = _CP0_GET_COUNT()-time[0];
9d0020cc:	40034800 	mfc0	v1,c0_count
9d0020d0:	3c02a000 	lui	v0,0xa000
9d0020d4:	8c420620 	lw	v0,1568(v0)
9d0020d8:	00621823 	subu	v1,v1,v0
9d0020dc:	3c02a000 	lui	v0,0xa000
9d0020e0:	24420620 	addiu	v0,v0,1568
9d0020e4:	ac430008 	sw	v1,8(v0)
				count++;
9d0020e8:	8f828018 	lw	v0,-32744(gp)
9d0020ec:	24420001 	addiu	v0,v0,1
9d0020f0:	af828018 	sw	v0,-32744(gp)
	}
	if(s1 == 5){
9d0020f4:	8f838020 	lw	v1,-32736(gp)
9d0020f8:	24020005 	li	v0,5
9d0020fc:	1462000c 	bne	v1,v0,9d002130 <RS2_EdgeISR+0xb4>
9d002100:	00000000 	nop
		time[6] = _CP0_GET_COUNT()-time[4];
9d002104:	40034800 	mfc0	v1,c0_count
9d002108:	3c02a000 	lui	v0,0xa000
9d00210c:	24420620 	addiu	v0,v0,1568
9d002110:	8c420010 	lw	v0,16(v0)
9d002114:	00621823 	subu	v1,v1,v0
9d002118:	3c02a000 	lui	v0,0xa000
9d00211c:	24420620 	addiu	v0,v0,1568
9d002120:	ac430018 	sw	v1,24(v0)
				count++;
9d002124:	8f828018 	lw	v0,-32744(gp)
9d002128:	24420001 	addiu	v0,v0,1
9d00212c:	af828018 	sw	v0,-32744(gp)
		// 	    	count++;
		// 	    	break;
		// 	    }
		// }
	
	IFS0bits.INT2IF = 0;
9d002130:	3c03bf88 	lui	v1,0xbf88
9d002134:	8c621030 	lw	v0,4144(v1)
9d002138:	7c025ac4 	ins	v0,zero,0xb,0x1
9d00213c:	ac621030 	sw	v0,4144(v1)
}
9d002140:	03c0e821 	move	sp,s8
9d002144:	8fbf000c 	lw	ra,12(sp)
9d002148:	8fbe0008 	lw	s8,8(sp)
9d00214c:	8fa30004 	lw	v1,4(sp)
9d002150:	8fa20000 	lw	v0,0(sp)
9d002154:	41606000 	di
9d002158:	000000c0 	ehb
9d00215c:	8fba001c 	lw	k0,28(sp)
9d002160:	8fbb0018 	lw	k1,24(sp)
9d002164:	409a7000 	mtc0	k0,c0_epc
9d002168:	8fba0014 	lw	k0,20(sp)
9d00216c:	27bd0020 	addiu	sp,sp,32
9d002170:	409a6002 	mtc0	k0,c0_srsctl
9d002174:	41dde800 	wrpgpr	sp,sp
9d002178:	409b6000 	mtc0	k1,c0_status
9d00217c:	42000018 	eret

9d002180 <RS3_EdgeISR>:
void __ISR(_EXTERNAL_3_VECTOR, IPL3SOFT) RS3_EdgeISR(void){
9d002180:	415de800 	rdpgpr	sp,sp
9d002184:	401a7000 	mfc0	k0,c0_epc
9d002188:	401b6000 	mfc0	k1,c0_status
9d00218c:	27bdffe0 	addiu	sp,sp,-32
9d002190:	afba001c 	sw	k0,28(sp)
9d002194:	401a6002 	mfc0	k0,c0_srsctl
9d002198:	afbb0018 	sw	k1,24(sp)
9d00219c:	afba0014 	sw	k0,20(sp)
9d0021a0:	7c1b7844 	ins	k1,zero,0x1,0xf
9d0021a4:	377b0c00 	ori	k1,k1,0xc00
9d0021a8:	409b6000 	mtc0	k1,c0_status
9d0021ac:	afbf000c 	sw	ra,12(sp)
9d0021b0:	afbe0008 	sw	s8,8(sp)
9d0021b4:	afa30004 	sw	v1,4(sp)
9d0021b8:	afa20000 	sw	v0,0(sp)
9d0021bc:	03a0f021 	move	s8,sp
	if(s1 == 1){
9d0021c0:	8f838020 	lw	v1,-32736(gp)
9d0021c4:	24020001 	li	v0,1
9d0021c8:	1462000b 	bne	v1,v0,9d0021f8 <RS3_EdgeISR+0x78>
9d0021cc:	00000000 	nop
		time[3] = _CP0_GET_COUNT()-time[0];
9d0021d0:	40034800 	mfc0	v1,c0_count
9d0021d4:	3c02a000 	lui	v0,0xa000
9d0021d8:	8c420620 	lw	v0,1568(v0)
9d0021dc:	00621823 	subu	v1,v1,v0
9d0021e0:	3c02a000 	lui	v0,0xa000
9d0021e4:	24420620 	addiu	v0,v0,1568
9d0021e8:	ac43000c 	sw	v1,12(v0)
				count++;
9d0021ec:	8f828018 	lw	v0,-32744(gp)
9d0021f0:	24420001 	addiu	v0,v0,1
9d0021f4:	af828018 	sw	v0,-32744(gp)
	}
	if(s1 == 5){
9d0021f8:	8f838020 	lw	v1,-32736(gp)
9d0021fc:	24020005 	li	v0,5
9d002200:	1462000c 	bne	v1,v0,9d002234 <RS3_EdgeISR+0xb4>
9d002204:	00000000 	nop
		time[7] = _CP0_GET_COUNT()-time[4];
9d002208:	40034800 	mfc0	v1,c0_count
9d00220c:	3c02a000 	lui	v0,0xa000
9d002210:	24420620 	addiu	v0,v0,1568
9d002214:	8c420010 	lw	v0,16(v0)
9d002218:	00621823 	subu	v1,v1,v0
9d00221c:	3c02a000 	lui	v0,0xa000
9d002220:	24420620 	addiu	v0,v0,1568
9d002224:	ac43001c 	sw	v1,28(v0)
				count++;
9d002228:	8f828018 	lw	v0,-32744(gp)
9d00222c:	24420001 	addiu	v0,v0,1
9d002230:	af828018 	sw	v0,-32744(gp)
		// 	    	count++;
		// 	    	break;
		// 	    }
		// }
	
	IFS0bits.INT3IF = 0;
9d002234:	3c03bf88 	lui	v1,0xbf88
9d002238:	8c621030 	lw	v0,4144(v1)
9d00223c:	7c027bc4 	ins	v0,zero,0xf,0x1
9d002240:	ac621030 	sw	v0,4144(v1)
}
9d002244:	03c0e821 	move	sp,s8
9d002248:	8fbf000c 	lw	ra,12(sp)
9d00224c:	8fbe0008 	lw	s8,8(sp)
9d002250:	8fa30004 	lw	v1,4(sp)
9d002254:	8fa20000 	lw	v0,0(sp)
9d002258:	41606000 	di
9d00225c:	000000c0 	ehb
9d002260:	8fba001c 	lw	k0,28(sp)
9d002264:	8fbb0018 	lw	k1,24(sp)
9d002268:	409a7000 	mtc0	k0,c0_epc
9d00226c:	8fba0014 	lw	k0,20(sp)
9d002270:	27bd0020 	addiu	sp,sp,32
9d002274:	409a6002 	mtc0	k0,c0_srsctl
9d002278:	41dde800 	wrpgpr	sp,sp
9d00227c:	409b6000 	mtc0	k1,c0_status
9d002280:	42000018 	eret

9d002284 <get_timeinit>:
// Initiate flash time INT0 and INT1 
void get_timeinit(void){
9d002284:	27bdfff8 	addiu	sp,sp,-8
9d002288:	afbe0004 	sw	s8,4(sp)
9d00228c:	03a0f021 	move	s8,sp
	INTCONbits.INT0EP = 0;          // step 3: INT0 triggers on falling edge
9d002290:	3c03bf88 	lui	v1,0xbf88
9d002294:	8c621000 	lw	v0,4096(v1)
9d002298:	7c020004 	ins	v0,zero,0x0,0x1
9d00229c:	ac621000 	sw	v0,4096(v1)
    IPC0bits.INT0IP = 2;            // step 4: interrupt priority 2
9d0022a0:	3c03bf88 	lui	v1,0xbf88
9d0022a4:	8c621090 	lw	v0,4240(v1)
9d0022a8:	24040002 	li	a0,2
9d0022ac:	7c82e684 	ins	v0,a0,0x1a,0x3
9d0022b0:	ac621090 	sw	v0,4240(v1)
    IPC0bits.INT0IS = 1;            // step 4: interrupt priority 1
9d0022b4:	3c03bf88 	lui	v1,0xbf88
9d0022b8:	8c621090 	lw	v0,4240(v1)
9d0022bc:	24040001 	li	a0,1
9d0022c0:	7c82ce04 	ins	v0,a0,0x18,0x2
9d0022c4:	ac621090 	sw	v0,4240(v1)
    IFS0bits.INT0IF = 0;            // step 5: clear the int flag
9d0022c8:	3c03bf88 	lui	v1,0xbf88
9d0022cc:	8c621030 	lw	v0,4144(v1)
9d0022d0:	7c0218c4 	ins	v0,zero,0x3,0x1
9d0022d4:	ac621030 	sw	v0,4144(v1)
    IEC0bits.INT0IE = 1;            // step 6: enable INT0 by setting IEC0<3>
9d0022d8:	3c03bf88 	lui	v1,0xbf88
9d0022dc:	8c621060 	lw	v0,4192(v1)
9d0022e0:	24040001 	li	a0,1
9d0022e4:	7c8218c4 	ins	v0,a0,0x3,0x1
9d0022e8:	ac621060 	sw	v0,4192(v1)

    INTCONbits.INT1EP = 1;          // step 3: INT1 triggers on rising edge
9d0022ec:	3c03bf88 	lui	v1,0xbf88
9d0022f0:	8c621000 	lw	v0,4096(v1)
9d0022f4:	24040001 	li	a0,1
9d0022f8:	7c820844 	ins	v0,a0,0x1,0x1
9d0022fc:	ac621000 	sw	v0,4096(v1)
    IPC1bits.INT1IP = 3;            // step 4: interrupt priority 3
9d002300:	3c03bf88 	lui	v1,0xbf88
9d002304:	8c6210a0 	lw	v0,4256(v1)
9d002308:	24040003 	li	a0,3
9d00230c:	7c82e684 	ins	v0,a0,0x1a,0x3
9d002310:	ac6210a0 	sw	v0,4256(v1)
    IPC1bits.INT1IS = 1;            // step 4: interrupt priority 1
9d002314:	3c03bf88 	lui	v1,0xbf88
9d002318:	8c6210a0 	lw	v0,4256(v1)
9d00231c:	24040001 	li	a0,1
9d002320:	7c82ce04 	ins	v0,a0,0x18,0x2
9d002324:	ac6210a0 	sw	v0,4256(v1)
    IFS0bits.INT1IF = 0;            // step 5: clear the int flag
9d002328:	3c03bf88 	lui	v1,0xbf88
9d00232c:	8c621030 	lw	v0,4144(v1)
9d002330:	7c0239c4 	ins	v0,zero,0x7,0x1
9d002334:	ac621030 	sw	v0,4144(v1)
    IEC0bits.INT1IE = 1;            // step 6: enable INT1 by setting IEC0<7>
9d002338:	3c03bf88 	lui	v1,0xbf88
9d00233c:	8c621060 	lw	v0,4192(v1)
9d002340:	24040001 	li	a0,1
9d002344:	7c8239c4 	ins	v0,a0,0x7,0x1
9d002348:	ac621060 	sw	v0,4192(v1)

    INTCONbits.INT2EP = 1;          // step 3: INT1 triggers on rising edge
9d00234c:	3c03bf88 	lui	v1,0xbf88
9d002350:	8c621000 	lw	v0,4096(v1)
9d002354:	24040001 	li	a0,1
9d002358:	7c821084 	ins	v0,a0,0x2,0x1
9d00235c:	ac621000 	sw	v0,4096(v1)
    IPC2bits.INT2IP = 3;            // step 4: interrupt priority 3
9d002360:	3c03bf88 	lui	v1,0xbf88
9d002364:	8c6210b0 	lw	v0,4272(v1)
9d002368:	24040003 	li	a0,3
9d00236c:	7c82e684 	ins	v0,a0,0x1a,0x3
9d002370:	ac6210b0 	sw	v0,4272(v1)
    IPC2bits.INT2IS = 2;            // step 4: interrupt priority 2
9d002374:	3c03bf88 	lui	v1,0xbf88
9d002378:	8c6210b0 	lw	v0,4272(v1)
9d00237c:	24040002 	li	a0,2
9d002380:	7c82ce04 	ins	v0,a0,0x18,0x2
9d002384:	ac6210b0 	sw	v0,4272(v1)
    IFS0bits.INT2IF = 0;            // step 5: clear the int flag
9d002388:	3c03bf88 	lui	v1,0xbf88
9d00238c:	8c621030 	lw	v0,4144(v1)
9d002390:	7c025ac4 	ins	v0,zero,0xb,0x1
9d002394:	ac621030 	sw	v0,4144(v1)
    IEC0bits.INT2IE = 1;            // step 6: enable INT2 by setting IEC0<11>
9d002398:	3c03bf88 	lui	v1,0xbf88
9d00239c:	8c621060 	lw	v0,4192(v1)
9d0023a0:	24040001 	li	a0,1
9d0023a4:	7c825ac4 	ins	v0,a0,0xb,0x1
9d0023a8:	ac621060 	sw	v0,4192(v1)

    INTCONbits.INT3EP = 1;          // step 3: INT1 triggers on rising edge
9d0023ac:	3c03bf88 	lui	v1,0xbf88
9d0023b0:	8c621000 	lw	v0,4096(v1)
9d0023b4:	24040001 	li	a0,1
9d0023b8:	7c8218c4 	ins	v0,a0,0x3,0x1
9d0023bc:	ac621000 	sw	v0,4096(v1)
    IPC3bits.INT3IP = 3;            // step 4: interrupt priority 3
9d0023c0:	3c03bf88 	lui	v1,0xbf88
9d0023c4:	8c6210c0 	lw	v0,4288(v1)
9d0023c8:	24040003 	li	a0,3
9d0023cc:	7c82e684 	ins	v0,a0,0x1a,0x3
9d0023d0:	ac6210c0 	sw	v0,4288(v1)
    IPC3bits.INT3IS = 3;            // step 4: interrupt priority 3
9d0023d4:	3c03bf88 	lui	v1,0xbf88
9d0023d8:	8c6210c0 	lw	v0,4288(v1)
9d0023dc:	24040003 	li	a0,3
9d0023e0:	7c82ce04 	ins	v0,a0,0x18,0x2
9d0023e4:	ac6210c0 	sw	v0,4288(v1)
    IFS0bits.INT3IF = 0;            // step 5: clear the int flag
9d0023e8:	3c03bf88 	lui	v1,0xbf88
9d0023ec:	8c621030 	lw	v0,4144(v1)
9d0023f0:	7c027bc4 	ins	v0,zero,0xf,0x1
9d0023f4:	ac621030 	sw	v0,4144(v1)
    IEC0bits.INT3IE = 1;            // step 6: enable INT3 by setting IEC0<15>
9d0023f8:	3c03bf88 	lui	v1,0xbf88
9d0023fc:	8c621060 	lw	v0,4192(v1)
9d002400:	24040001 	li	a0,1
9d002404:	7c827bc4 	ins	v0,a0,0xf,0x1
9d002408:	ac621060 	sw	v0,4192(v1)
}
9d00240c:	03c0e821 	move	sp,s8
9d002410:	8fbe0004 	lw	s8,4(sp)
9d002414:	27bd0008 	addiu	sp,sp,8
9d002418:	03e00008 	jr	ra
9d00241c:	00000000 	nop

9d002420 <reset_stick>:

void reset_stick(int *r){   //make sure flash1(vertical) < flash2(horizontal)
9d002420:	27bdfff0 	addiu	sp,sp,-16
9d002424:	afbe000c 	sw	s8,12(sp)
9d002428:	03a0f021 	move	s8,sp
9d00242c:	afc40010 	sw	a0,16(s8)
	int ii = 0;
9d002430:	afc00000 	sw	zero,0(s8)
	int temp;
	if (r[0] > FT){
9d002434:	8fc20010 	lw	v0,16(s8)
9d002438:	8c430000 	lw	v1,0(v0)
9d00243c:	3c020001 	lui	v0,0x1
9d002440:	344286a1 	ori	v0,v0,0x86a1
9d002444:	0062102a 	slt	v0,v1,v0
9d002448:	14400023 	bnez	v0,9d0024d8 <reset_stick+0xb8>
9d00244c:	00000000 	nop
		for (ii=0 ; ii<4 ; ii++){
9d002450:	afc00000 	sw	zero,0(s8)
9d002454:	0b400932 	j	9d0024c8 <reset_stick+0xa8>
9d002458:	00000000 	nop
			r[ii] = temp;
9d00245c:	8fc20000 	lw	v0,0(s8)
9d002460:	00021080 	sll	v0,v0,0x2
9d002464:	8fc30010 	lw	v1,16(s8)
9d002468:	00621021 	addu	v0,v1,v0
9d00246c:	8fc30004 	lw	v1,4(s8)
9d002470:	ac430000 	sw	v1,0(v0)
			r[ii] = r[ii+4];
9d002474:	8fc20000 	lw	v0,0(s8)
9d002478:	00021080 	sll	v0,v0,0x2
9d00247c:	8fc30010 	lw	v1,16(s8)
9d002480:	00621021 	addu	v0,v1,v0
9d002484:	8fc30000 	lw	v1,0(s8)
9d002488:	24630004 	addiu	v1,v1,4
9d00248c:	00031880 	sll	v1,v1,0x2
9d002490:	8fc40010 	lw	a0,16(s8)
9d002494:	00831821 	addu	v1,a0,v1
9d002498:	8c630000 	lw	v1,0(v1)
9d00249c:	ac430000 	sw	v1,0(v0)
			r[ii+4] = temp;
9d0024a0:	8fc20000 	lw	v0,0(s8)
9d0024a4:	24420004 	addiu	v0,v0,4
9d0024a8:	00021080 	sll	v0,v0,0x2
9d0024ac:	8fc30010 	lw	v1,16(s8)
9d0024b0:	00621021 	addu	v0,v1,v0
9d0024b4:	8fc30004 	lw	v1,4(s8)
9d0024b8:	ac430000 	sw	v1,0(v0)

void reset_stick(int *r){   //make sure flash1(vertical) < flash2(horizontal)
	int ii = 0;
	int temp;
	if (r[0] > FT){
		for (ii=0 ; ii<4 ; ii++){
9d0024bc:	8fc20000 	lw	v0,0(s8)
9d0024c0:	24420001 	addiu	v0,v0,1
9d0024c4:	afc20000 	sw	v0,0(s8)
9d0024c8:	8fc20000 	lw	v0,0(s8)
9d0024cc:	28420004 	slti	v0,v0,4
9d0024d0:	1440ffe2 	bnez	v0,9d00245c <reset_stick+0x3c>
9d0024d4:	00000000 	nop
			r[ii] = temp;
			r[ii] = r[ii+4];
			r[ii+4] = temp;
		}
	}
}
9d0024d8:	03c0e821 	move	sp,s8
9d0024dc:	8fbe000c 	lw	s8,12(sp)
9d0024e0:	27bd0010 	addiu	sp,sp,16
9d0024e4:	03e00008 	jr	ra
9d0024e8:	00000000 	nop

9d0024ec <copy_stick_time>:


void copy_stick_time(unsigned int* t, unsigned int* s){
9d0024ec:	27bdfff0 	addiu	sp,sp,-16
9d0024f0:	afbe000c 	sw	s8,12(sp)
9d0024f4:	03a0f021 	move	s8,sp
9d0024f8:	afc40010 	sw	a0,16(s8)
9d0024fc:	afc50014 	sw	a1,20(s8)
	int i;
	for (i=0 ; i<8 ; i++){
9d002500:	afc00000 	sw	zero,0(s8)
9d002504:	0b400950 	j	9d002540 <copy_stick_time+0x54>
9d002508:	00000000 	nop
		t[i] = s[i];
9d00250c:	8fc20000 	lw	v0,0(s8)
9d002510:	00021080 	sll	v0,v0,0x2
9d002514:	8fc30010 	lw	v1,16(s8)
9d002518:	00621021 	addu	v0,v1,v0
9d00251c:	8fc30000 	lw	v1,0(s8)
9d002520:	00031880 	sll	v1,v1,0x2
9d002524:	8fc40014 	lw	a0,20(s8)
9d002528:	00831821 	addu	v1,a0,v1
9d00252c:	8c630000 	lw	v1,0(v1)
9d002530:	ac430000 	sw	v1,0(v0)
}


void copy_stick_time(unsigned int* t, unsigned int* s){
	int i;
	for (i=0 ; i<8 ; i++){
9d002534:	8fc20000 	lw	v0,0(s8)
9d002538:	24420001 	addiu	v0,v0,1
9d00253c:	afc20000 	sw	v0,0(s8)
9d002540:	8fc20000 	lw	v0,0(s8)
9d002544:	28420008 	slti	v0,v0,8
9d002548:	1440fff0 	bnez	v0,9d00250c <copy_stick_time+0x20>
9d00254c:	00000000 	nop
		t[i] = s[i];
	}
}
9d002550:	03c0e821 	move	sp,s8
9d002554:	8fbe000c 	lw	s8,12(sp)
9d002558:	27bd0010 	addiu	sp,sp,16
9d00255c:	03e00008 	jr	ra
9d002560:	00000000 	nop

9d002564 <multi_constant_arrey>:

void multi_constant_arrey(float mul, float* t, int *s){
9d002564:	27bdffd8 	addiu	sp,sp,-40
9d002568:	afbf0024 	sw	ra,36(sp)
9d00256c:	afbe0020 	sw	s8,32(sp)
9d002570:	afb0001c 	sw	s0,28(sp)
9d002574:	03a0f021 	move	s8,sp
9d002578:	afc40028 	sw	a0,40(s8)
9d00257c:	afc5002c 	sw	a1,44(s8)
9d002580:	afc60030 	sw	a2,48(s8)
	int num = 8;
9d002584:	24020008 	li	v0,8
9d002588:	afc20014 	sw	v0,20(s8)
	int i;
	for (i=0 ; i<num ; i++){
9d00258c:	afc00010 	sw	zero,16(s8)
9d002590:	0b40097a 	j	9d0025e8 <multi_constant_arrey+0x84>
9d002594:	00000000 	nop
		t[i] = (float)s[i]*mul;
9d002598:	8fc20010 	lw	v0,16(s8)
9d00259c:	00021080 	sll	v0,v0,0x2
9d0025a0:	8fc3002c 	lw	v1,44(s8)
9d0025a4:	00628021 	addu	s0,v1,v0
9d0025a8:	8fc20010 	lw	v0,16(s8)
9d0025ac:	00021080 	sll	v0,v0,0x2
9d0025b0:	8fc30030 	lw	v1,48(s8)
9d0025b4:	00621021 	addu	v0,v1,v0
9d0025b8:	8c420000 	lw	v0,0(v0)
9d0025bc:	00402021 	move	a0,v0
9d0025c0:	0f4022e1 	jal	9d008b84 <.LFE23>
9d0025c4:	00000000 	nop
9d0025c8:	00402021 	move	a0,v0
9d0025cc:	8fc50028 	lw	a1,40(s8)
9d0025d0:	0f401c9d 	jal	9d007274 <__mulsf3>
9d0025d4:	00000000 	nop
9d0025d8:	ae020000 	sw	v0,0(s0)
}

void multi_constant_arrey(float mul, float* t, int *s){
	int num = 8;
	int i;
	for (i=0 ; i<num ; i++){
9d0025dc:	8fc20010 	lw	v0,16(s8)
9d0025e0:	24420001 	addiu	v0,v0,1
9d0025e4:	afc20010 	sw	v0,16(s8)
9d0025e8:	8fc30010 	lw	v1,16(s8)
9d0025ec:	8fc20014 	lw	v0,20(s8)
9d0025f0:	0062102a 	slt	v0,v1,v0
9d0025f4:	1440ffe8 	bnez	v0,9d002598 <multi_constant_arrey+0x34>
9d0025f8:	00000000 	nop
		t[i] = (float)s[i]*mul;
	}
}
9d0025fc:	03c0e821 	move	sp,s8
9d002600:	8fbf0024 	lw	ra,36(sp)
9d002604:	8fbe0020 	lw	s8,32(sp)
9d002608:	8fb0001c 	lw	s0,28(sp)
9d00260c:	27bd0028 	addiu	sp,sp,40
9d002610:	03e00008 	jr	ra
9d002614:	00000000 	nop

9d002618 <coordinate>:

void coordinate(int *stick, float* a, float* b, float* c, float AB, float BC, float AC){
9d002618:	27bdff58 	addiu	sp,sp,-168
9d00261c:	afbf00a4 	sw	ra,164(sp)
9d002620:	afbe00a0 	sw	s8,160(sp)
9d002624:	afb1009c 	sw	s1,156(sp)
9d002628:	afb00098 	sw	s0,152(sp)
9d00262c:	03a0f021 	move	s8,sp
9d002630:	afc400a8 	sw	a0,168(s8)
9d002634:	afc500ac 	sw	a1,172(s8)
9d002638:	afc600b0 	sw	a2,176(s8)
9d00263c:	afc700b4 	sw	a3,180(s8)
	
	float t[8];
	float vA,vB,vC,hA,hB,hC,cAB,cAC,cBC;
	float r0[3];  //initial RA RB RC
	float eqs[3];
	float **jacMat=(float**)malloc(3*(sizeof(float*)));
9d002640:	2404000c 	li	a0,12
9d002644:	0f4010c6 	jal	9d004318 <malloc>
9d002648:	00000000 	nop
9d00264c:	afc2002c 	sw	v0,44(s8)
	int i;
	for(i=0;i<3;i++){
9d002650:	afc00028 	sw	zero,40(s8)
9d002654:	0b4009a2 	j	9d002688 <coordinate+0x70>
9d002658:	00000000 	nop
		*(jacMat+i)=(float*)malloc(sizeof(float)*3);
9d00265c:	8fc20028 	lw	v0,40(s8)
9d002660:	00021080 	sll	v0,v0,0x2
9d002664:	8fc3002c 	lw	v1,44(s8)
9d002668:	00628021 	addu	s0,v1,v0
9d00266c:	2404000c 	li	a0,12
9d002670:	0f4010c6 	jal	9d004318 <malloc>
9d002674:	00000000 	nop
9d002678:	ae020000 	sw	v0,0(s0)
	float vA,vB,vC,hA,hB,hC,cAB,cAC,cBC;
	float r0[3];  //initial RA RB RC
	float eqs[3];
	float **jacMat=(float**)malloc(3*(sizeof(float*)));
	int i;
	for(i=0;i<3;i++){
9d00267c:	8fc20028 	lw	v0,40(s8)
9d002680:	24420001 	addiu	v0,v0,1
9d002684:	afc20028 	sw	v0,40(s8)
9d002688:	8fc20028 	lw	v0,40(s8)
9d00268c:	28420003 	slti	v0,v0,3
9d002690:	1440fff2 	bnez	v0,9d00265c <coordinate+0x44>
9d002694:	00000000 	nop
		*(jacMat+i)=(float*)malloc(sizeof(float)*3);
	}
	int maxIterVal = 10000; //maxiteration value
9d002698:	24022710 	li	v0,10000
9d00269c:	afc20090 	sw	v0,144(s8)
	int* maxiter = &maxIterVal;
9d0026a0:	27c20090 	addiu	v0,s8,144
9d0026a4:	afc20030 	sw	v0,48(s8)


	reset_stick(stick);
9d0026a8:	8fc400a8 	lw	a0,168(s8)
9d0026ac:	0f400908 	jal	9d002420 <reset_stick>
9d0026b0:	00000000 	nop
	multi_constant_arrey(0.025*ang_vel,t,stick);  //sticks convert to angle (ms)
9d0026b4:	3c029d01 	lui	v0,0x9d01
9d0026b8:	8c439040 	lw	v1,-28608(v0)
9d0026bc:	27c20058 	addiu	v0,s8,88
9d0026c0:	00602021 	move	a0,v1
9d0026c4:	00402821 	move	a1,v0
9d0026c8:	8fc600a8 	lw	a2,168(s8)
9d0026cc:	0f400959 	jal	9d002564 <multi_constant_arrey>
9d0026d0:	00000000 	nop
	vA = t[1];
9d0026d4:	8fc2005c 	lw	v0,92(s8)
9d0026d8:	afc20034 	sw	v0,52(s8)
	vB = t[2];
9d0026dc:	8fc20060 	lw	v0,96(s8)
9d0026e0:	afc20038 	sw	v0,56(s8)
	vC = t[3];
9d0026e4:	8fc20064 	lw	v0,100(s8)
9d0026e8:	afc2003c 	sw	v0,60(s8)
	hA = t[5];
9d0026ec:	8fc2006c 	lw	v0,108(s8)
9d0026f0:	afc20040 	sw	v0,64(s8)
	hB = t[6];
9d0026f4:	8fc20070 	lw	v0,112(s8)
9d0026f8:	afc20044 	sw	v0,68(s8)
	hC = t[7];
9d0026fc:	8fc20074 	lw	v0,116(s8)
9d002700:	afc20048 	sw	v0,72(s8)
	cAB = sin(vA)*cos(hA)*sin(vB)*cos(hB)+sin(vA)*sin(hA)*sin(vB)*sin(hB)+cos(vA)*cos(vB);
9d002704:	8fc40034 	lw	a0,52(s8)
9d002708:	0f401e5d 	jal	9d007974 <fpsin>
9d00270c:	00000000 	nop
9d002710:	00408021 	move	s0,v0
9d002714:	8fc40040 	lw	a0,64(s8)
9d002718:	0f401ea4 	jal	9d007a90 <cosf>
9d00271c:	00000000 	nop
9d002720:	02002021 	move	a0,s0
9d002724:	00402821 	move	a1,v0
9d002728:	0f401c9d 	jal	9d007274 <__mulsf3>
9d00272c:	00000000 	nop
9d002730:	00408021 	move	s0,v0
9d002734:	8fc40038 	lw	a0,56(s8)
9d002738:	0f401e5d 	jal	9d007974 <fpsin>
9d00273c:	00000000 	nop
9d002740:	02002021 	move	a0,s0
9d002744:	00402821 	move	a1,v0
9d002748:	0f401c9d 	jal	9d007274 <__mulsf3>
9d00274c:	00000000 	nop
9d002750:	00408021 	move	s0,v0
9d002754:	8fc40044 	lw	a0,68(s8)
9d002758:	0f401ea4 	jal	9d007a90 <cosf>
9d00275c:	00000000 	nop
9d002760:	02002021 	move	a0,s0
9d002764:	00402821 	move	a1,v0
9d002768:	0f401c9d 	jal	9d007274 <__mulsf3>
9d00276c:	00000000 	nop
9d002770:	00408021 	move	s0,v0
9d002774:	8fc40034 	lw	a0,52(s8)
9d002778:	0f401e5d 	jal	9d007974 <fpsin>
9d00277c:	00000000 	nop
9d002780:	00408821 	move	s1,v0
9d002784:	8fc40040 	lw	a0,64(s8)
9d002788:	0f401e5d 	jal	9d007974 <fpsin>
9d00278c:	00000000 	nop
9d002790:	02202021 	move	a0,s1
9d002794:	00402821 	move	a1,v0
9d002798:	0f401c9d 	jal	9d007274 <__mulsf3>
9d00279c:	00000000 	nop
9d0027a0:	00408821 	move	s1,v0
9d0027a4:	8fc40038 	lw	a0,56(s8)
9d0027a8:	0f401e5d 	jal	9d007974 <fpsin>
9d0027ac:	00000000 	nop
9d0027b0:	02202021 	move	a0,s1
9d0027b4:	00402821 	move	a1,v0
9d0027b8:	0f401c9d 	jal	9d007274 <__mulsf3>
9d0027bc:	00000000 	nop
9d0027c0:	00408821 	move	s1,v0
9d0027c4:	8fc40044 	lw	a0,68(s8)
9d0027c8:	0f401e5d 	jal	9d007974 <fpsin>
9d0027cc:	00000000 	nop
9d0027d0:	02202021 	move	a0,s1
9d0027d4:	00402821 	move	a1,v0
9d0027d8:	0f401c9d 	jal	9d007274 <__mulsf3>
9d0027dc:	00000000 	nop
9d0027e0:	02002021 	move	a0,s0
9d0027e4:	00402821 	move	a1,v0
9d0027e8:	0f401af4 	jal	9d006bd0 <__addsf3>
9d0027ec:	00000000 	nop
9d0027f0:	00408021 	move	s0,v0
9d0027f4:	8fc40034 	lw	a0,52(s8)
9d0027f8:	0f401ea4 	jal	9d007a90 <cosf>
9d0027fc:	00000000 	nop
9d002800:	00408821 	move	s1,v0
9d002804:	8fc40038 	lw	a0,56(s8)
9d002808:	0f401ea4 	jal	9d007a90 <cosf>
9d00280c:	00000000 	nop
9d002810:	02202021 	move	a0,s1
9d002814:	00402821 	move	a1,v0
9d002818:	0f401c9d 	jal	9d007274 <__mulsf3>
9d00281c:	00000000 	nop
9d002820:	02002021 	move	a0,s0
9d002824:	00402821 	move	a1,v0
9d002828:	0f401af4 	jal	9d006bd0 <__addsf3>
9d00282c:	00000000 	nop
9d002830:	afc2004c 	sw	v0,76(s8)
	cBC = sin(vB)*cos(hB)*sin(vC)*cos(hC)+sin(vB)*sin(hB)*sin(vC)*sin(hC)+cos(vB)*cos(vC);
9d002834:	8fc40038 	lw	a0,56(s8)
9d002838:	0f401e5d 	jal	9d007974 <fpsin>
9d00283c:	00000000 	nop
9d002840:	00408021 	move	s0,v0
9d002844:	8fc40044 	lw	a0,68(s8)
9d002848:	0f401ea4 	jal	9d007a90 <cosf>
9d00284c:	00000000 	nop
9d002850:	02002021 	move	a0,s0
9d002854:	00402821 	move	a1,v0
9d002858:	0f401c9d 	jal	9d007274 <__mulsf3>
9d00285c:	00000000 	nop
9d002860:	00408021 	move	s0,v0
9d002864:	8fc4003c 	lw	a0,60(s8)
9d002868:	0f401e5d 	jal	9d007974 <fpsin>
9d00286c:	00000000 	nop
9d002870:	02002021 	move	a0,s0
9d002874:	00402821 	move	a1,v0
9d002878:	0f401c9d 	jal	9d007274 <__mulsf3>
9d00287c:	00000000 	nop
9d002880:	00408021 	move	s0,v0
9d002884:	8fc40048 	lw	a0,72(s8)
9d002888:	0f401ea4 	jal	9d007a90 <cosf>
9d00288c:	00000000 	nop
9d002890:	02002021 	move	a0,s0
9d002894:	00402821 	move	a1,v0
9d002898:	0f401c9d 	jal	9d007274 <__mulsf3>
9d00289c:	00000000 	nop
9d0028a0:	00408021 	move	s0,v0
9d0028a4:	8fc40038 	lw	a0,56(s8)
9d0028a8:	0f401e5d 	jal	9d007974 <fpsin>
9d0028ac:	00000000 	nop
9d0028b0:	00408821 	move	s1,v0
9d0028b4:	8fc40044 	lw	a0,68(s8)
9d0028b8:	0f401e5d 	jal	9d007974 <fpsin>
9d0028bc:	00000000 	nop
9d0028c0:	02202021 	move	a0,s1
9d0028c4:	00402821 	move	a1,v0
9d0028c8:	0f401c9d 	jal	9d007274 <__mulsf3>
9d0028cc:	00000000 	nop
9d0028d0:	00408821 	move	s1,v0
9d0028d4:	8fc4003c 	lw	a0,60(s8)
9d0028d8:	0f401e5d 	jal	9d007974 <fpsin>
9d0028dc:	00000000 	nop
9d0028e0:	02202021 	move	a0,s1
9d0028e4:	00402821 	move	a1,v0
9d0028e8:	0f401c9d 	jal	9d007274 <__mulsf3>
9d0028ec:	00000000 	nop
9d0028f0:	00408821 	move	s1,v0
9d0028f4:	8fc40048 	lw	a0,72(s8)
9d0028f8:	0f401e5d 	jal	9d007974 <fpsin>
9d0028fc:	00000000 	nop
9d002900:	02202021 	move	a0,s1
9d002904:	00402821 	move	a1,v0
9d002908:	0f401c9d 	jal	9d007274 <__mulsf3>
9d00290c:	00000000 	nop
9d002910:	02002021 	move	a0,s0
9d002914:	00402821 	move	a1,v0
9d002918:	0f401af4 	jal	9d006bd0 <__addsf3>
9d00291c:	00000000 	nop
9d002920:	00408021 	move	s0,v0
9d002924:	8fc40038 	lw	a0,56(s8)
9d002928:	0f401ea4 	jal	9d007a90 <cosf>
9d00292c:	00000000 	nop
9d002930:	00408821 	move	s1,v0
9d002934:	8fc4003c 	lw	a0,60(s8)
9d002938:	0f401ea4 	jal	9d007a90 <cosf>
9d00293c:	00000000 	nop
9d002940:	02202021 	move	a0,s1
9d002944:	00402821 	move	a1,v0
9d002948:	0f401c9d 	jal	9d007274 <__mulsf3>
9d00294c:	00000000 	nop
9d002950:	02002021 	move	a0,s0
9d002954:	00402821 	move	a1,v0
9d002958:	0f401af4 	jal	9d006bd0 <__addsf3>
9d00295c:	00000000 	nop
9d002960:	afc20050 	sw	v0,80(s8)
	cAC = sin(vA)*cos(hA)*sin(vC)*cos(hC)+sin(vA)*sin(hA)*sin(vC)*sin(hC)+cos(vA)*cos(vC);
9d002964:	8fc40034 	lw	a0,52(s8)
9d002968:	0f401e5d 	jal	9d007974 <fpsin>
9d00296c:	00000000 	nop
9d002970:	00408021 	move	s0,v0
9d002974:	8fc40040 	lw	a0,64(s8)
9d002978:	0f401ea4 	jal	9d007a90 <cosf>
9d00297c:	00000000 	nop
9d002980:	02002021 	move	a0,s0
9d002984:	00402821 	move	a1,v0
9d002988:	0f401c9d 	jal	9d007274 <__mulsf3>
9d00298c:	00000000 	nop
9d002990:	00408021 	move	s0,v0
9d002994:	8fc4003c 	lw	a0,60(s8)
9d002998:	0f401e5d 	jal	9d007974 <fpsin>
9d00299c:	00000000 	nop
9d0029a0:	02002021 	move	a0,s0
9d0029a4:	00402821 	move	a1,v0
9d0029a8:	0f401c9d 	jal	9d007274 <__mulsf3>
9d0029ac:	00000000 	nop
9d0029b0:	00408021 	move	s0,v0
9d0029b4:	8fc40048 	lw	a0,72(s8)
9d0029b8:	0f401ea4 	jal	9d007a90 <cosf>
9d0029bc:	00000000 	nop
9d0029c0:	02002021 	move	a0,s0
9d0029c4:	00402821 	move	a1,v0
9d0029c8:	0f401c9d 	jal	9d007274 <__mulsf3>
9d0029cc:	00000000 	nop
9d0029d0:	00408021 	move	s0,v0
9d0029d4:	8fc40034 	lw	a0,52(s8)
9d0029d8:	0f401e5d 	jal	9d007974 <fpsin>
9d0029dc:	00000000 	nop
9d0029e0:	00408821 	move	s1,v0
9d0029e4:	8fc40040 	lw	a0,64(s8)
9d0029e8:	0f401e5d 	jal	9d007974 <fpsin>
9d0029ec:	00000000 	nop
9d0029f0:	02202021 	move	a0,s1
9d0029f4:	00402821 	move	a1,v0
9d0029f8:	0f401c9d 	jal	9d007274 <__mulsf3>
9d0029fc:	00000000 	nop
9d002a00:	00408821 	move	s1,v0
9d002a04:	8fc4003c 	lw	a0,60(s8)
9d002a08:	0f401e5d 	jal	9d007974 <fpsin>
9d002a0c:	00000000 	nop
9d002a10:	02202021 	move	a0,s1
9d002a14:	00402821 	move	a1,v0
9d002a18:	0f401c9d 	jal	9d007274 <__mulsf3>
9d002a1c:	00000000 	nop
9d002a20:	00408821 	move	s1,v0
9d002a24:	8fc40048 	lw	a0,72(s8)
9d002a28:	0f401e5d 	jal	9d007974 <fpsin>
9d002a2c:	00000000 	nop
9d002a30:	02202021 	move	a0,s1
9d002a34:	00402821 	move	a1,v0
9d002a38:	0f401c9d 	jal	9d007274 <__mulsf3>
9d002a3c:	00000000 	nop
9d002a40:	02002021 	move	a0,s0
9d002a44:	00402821 	move	a1,v0
9d002a48:	0f401af4 	jal	9d006bd0 <__addsf3>
9d002a4c:	00000000 	nop
9d002a50:	00408021 	move	s0,v0
9d002a54:	8fc40034 	lw	a0,52(s8)
9d002a58:	0f401ea4 	jal	9d007a90 <cosf>
9d002a5c:	00000000 	nop
9d002a60:	00408821 	move	s1,v0
9d002a64:	8fc4003c 	lw	a0,60(s8)
9d002a68:	0f401ea4 	jal	9d007a90 <cosf>
9d002a6c:	00000000 	nop
9d002a70:	02202021 	move	a0,s1
9d002a74:	00402821 	move	a1,v0
9d002a78:	0f401c9d 	jal	9d007274 <__mulsf3>
9d002a7c:	00000000 	nop
9d002a80:	02002021 	move	a0,s0
9d002a84:	00402821 	move	a1,v0
9d002a88:	0f401af4 	jal	9d006bd0 <__addsf3>
9d002a8c:	00000000 	nop
9d002a90:	afc20054 	sw	v0,84(s8)

	newtonOpt(r0 , maxiter , eqs , jacMat, AB, BC, AC, cAB, cBC, cAC); //calculate R={RA,RB,RC}
9d002a94:	27c30078 	addiu	v1,s8,120
9d002a98:	27c20084 	addiu	v0,s8,132
9d002a9c:	8fc400b8 	lw	a0,184(s8)
9d002aa0:	afa40010 	sw	a0,16(sp)
9d002aa4:	8fc400bc 	lw	a0,188(s8)
9d002aa8:	afa40014 	sw	a0,20(sp)
9d002aac:	8fc400c0 	lw	a0,192(s8)
9d002ab0:	afa40018 	sw	a0,24(sp)
9d002ab4:	8fc4004c 	lw	a0,76(s8)
9d002ab8:	afa4001c 	sw	a0,28(sp)
9d002abc:	8fc40050 	lw	a0,80(s8)
9d002ac0:	afa40020 	sw	a0,32(sp)
9d002ac4:	8fc40054 	lw	a0,84(s8)
9d002ac8:	afa40024 	sw	a0,36(sp)
9d002acc:	00602021 	move	a0,v1
9d002ad0:	8fc50030 	lw	a1,48(s8)
9d002ad4:	00403021 	move	a2,v0
9d002ad8:	8fc7002c 	lw	a3,44(s8)
9d002adc:	0f400e2f 	jal	9d0038bc <newtonOpt>
9d002ae0:	00000000 	nop

	a[0] = r0[0] * sin(vA) * cos(hA);
9d002ae4:	8fd00078 	lw	s0,120(s8)
9d002ae8:	8fc40034 	lw	a0,52(s8)
9d002aec:	0f401e5d 	jal	9d007974 <fpsin>
9d002af0:	00000000 	nop
9d002af4:	02002021 	move	a0,s0
9d002af8:	00402821 	move	a1,v0
9d002afc:	0f401c9d 	jal	9d007274 <__mulsf3>
9d002b00:	00000000 	nop
9d002b04:	00408021 	move	s0,v0
9d002b08:	8fc40040 	lw	a0,64(s8)
9d002b0c:	0f401ea4 	jal	9d007a90 <cosf>
9d002b10:	00000000 	nop
9d002b14:	02002021 	move	a0,s0
9d002b18:	00402821 	move	a1,v0
9d002b1c:	0f401c9d 	jal	9d007274 <__mulsf3>
9d002b20:	00000000 	nop
9d002b24:	00401821 	move	v1,v0
9d002b28:	8fc200ac 	lw	v0,172(s8)
9d002b2c:	ac430000 	sw	v1,0(v0)
	a[1] = r0[0] * sin(vA) * sin(hA);
9d002b30:	8fc200ac 	lw	v0,172(s8)
9d002b34:	24500004 	addiu	s0,v0,4
9d002b38:	8fd10078 	lw	s1,120(s8)
9d002b3c:	8fc40034 	lw	a0,52(s8)
9d002b40:	0f401e5d 	jal	9d007974 <fpsin>
9d002b44:	00000000 	nop
9d002b48:	02202021 	move	a0,s1
9d002b4c:	00402821 	move	a1,v0
9d002b50:	0f401c9d 	jal	9d007274 <__mulsf3>
9d002b54:	00000000 	nop
9d002b58:	00408821 	move	s1,v0
9d002b5c:	8fc40040 	lw	a0,64(s8)
9d002b60:	0f401e5d 	jal	9d007974 <fpsin>
9d002b64:	00000000 	nop
9d002b68:	02202021 	move	a0,s1
9d002b6c:	00402821 	move	a1,v0
9d002b70:	0f401c9d 	jal	9d007274 <__mulsf3>
9d002b74:	00000000 	nop
9d002b78:	ae020000 	sw	v0,0(s0)
	a[2] = r0[0] * cos(vA);
9d002b7c:	8fc200ac 	lw	v0,172(s8)
9d002b80:	24500008 	addiu	s0,v0,8
9d002b84:	8fd10078 	lw	s1,120(s8)
9d002b88:	8fc40034 	lw	a0,52(s8)
9d002b8c:	0f401ea4 	jal	9d007a90 <cosf>
9d002b90:	00000000 	nop
9d002b94:	02202021 	move	a0,s1
9d002b98:	00402821 	move	a1,v0
9d002b9c:	0f401c9d 	jal	9d007274 <__mulsf3>
9d002ba0:	00000000 	nop
9d002ba4:	ae020000 	sw	v0,0(s0)

	b[0] = r0[1] * sin(vB) * cos(hB);
9d002ba8:	8fd0007c 	lw	s0,124(s8)
9d002bac:	8fc40038 	lw	a0,56(s8)
9d002bb0:	0f401e5d 	jal	9d007974 <fpsin>
9d002bb4:	00000000 	nop
9d002bb8:	02002021 	move	a0,s0
9d002bbc:	00402821 	move	a1,v0
9d002bc0:	0f401c9d 	jal	9d007274 <__mulsf3>
9d002bc4:	00000000 	nop
9d002bc8:	00408021 	move	s0,v0
9d002bcc:	8fc40044 	lw	a0,68(s8)
9d002bd0:	0f401ea4 	jal	9d007a90 <cosf>
9d002bd4:	00000000 	nop
9d002bd8:	02002021 	move	a0,s0
9d002bdc:	00402821 	move	a1,v0
9d002be0:	0f401c9d 	jal	9d007274 <__mulsf3>
9d002be4:	00000000 	nop
9d002be8:	00401821 	move	v1,v0
9d002bec:	8fc200b0 	lw	v0,176(s8)
9d002bf0:	ac430000 	sw	v1,0(v0)
	b[1] = r0[1] * sin(vB) * sin(hB);
9d002bf4:	8fc200b0 	lw	v0,176(s8)
9d002bf8:	24500004 	addiu	s0,v0,4
9d002bfc:	8fd1007c 	lw	s1,124(s8)
9d002c00:	8fc40038 	lw	a0,56(s8)
9d002c04:	0f401e5d 	jal	9d007974 <fpsin>
9d002c08:	00000000 	nop
9d002c0c:	02202021 	move	a0,s1
9d002c10:	00402821 	move	a1,v0
9d002c14:	0f401c9d 	jal	9d007274 <__mulsf3>
9d002c18:	00000000 	nop
9d002c1c:	00408821 	move	s1,v0
9d002c20:	8fc40044 	lw	a0,68(s8)
9d002c24:	0f401e5d 	jal	9d007974 <fpsin>
9d002c28:	00000000 	nop
9d002c2c:	02202021 	move	a0,s1
9d002c30:	00402821 	move	a1,v0
9d002c34:	0f401c9d 	jal	9d007274 <__mulsf3>
9d002c38:	00000000 	nop
9d002c3c:	ae020000 	sw	v0,0(s0)
	b[2] = r0[1] * cos(vB);
9d002c40:	8fc200b0 	lw	v0,176(s8)
9d002c44:	24500008 	addiu	s0,v0,8
9d002c48:	8fd1007c 	lw	s1,124(s8)
9d002c4c:	8fc40038 	lw	a0,56(s8)
9d002c50:	0f401ea4 	jal	9d007a90 <cosf>
9d002c54:	00000000 	nop
9d002c58:	02202021 	move	a0,s1
9d002c5c:	00402821 	move	a1,v0
9d002c60:	0f401c9d 	jal	9d007274 <__mulsf3>
9d002c64:	00000000 	nop
9d002c68:	ae020000 	sw	v0,0(s0)

	c[0] = r0[2] * sin(vC) * cos(hC);
9d002c6c:	8fd00080 	lw	s0,128(s8)
9d002c70:	8fc4003c 	lw	a0,60(s8)
9d002c74:	0f401e5d 	jal	9d007974 <fpsin>
9d002c78:	00000000 	nop
9d002c7c:	02002021 	move	a0,s0
9d002c80:	00402821 	move	a1,v0
9d002c84:	0f401c9d 	jal	9d007274 <__mulsf3>
9d002c88:	00000000 	nop
9d002c8c:	00408021 	move	s0,v0
9d002c90:	8fc40048 	lw	a0,72(s8)
9d002c94:	0f401ea4 	jal	9d007a90 <cosf>
9d002c98:	00000000 	nop
9d002c9c:	02002021 	move	a0,s0
9d002ca0:	00402821 	move	a1,v0
9d002ca4:	0f401c9d 	jal	9d007274 <__mulsf3>
9d002ca8:	00000000 	nop
9d002cac:	00401821 	move	v1,v0
9d002cb0:	8fc200b4 	lw	v0,180(s8)
9d002cb4:	ac430000 	sw	v1,0(v0)
	c[1] = r0[2] * sin(vC) * sin(hC);
9d002cb8:	8fc200b4 	lw	v0,180(s8)
9d002cbc:	24500004 	addiu	s0,v0,4
9d002cc0:	8fd10080 	lw	s1,128(s8)
9d002cc4:	8fc4003c 	lw	a0,60(s8)
9d002cc8:	0f401e5d 	jal	9d007974 <fpsin>
9d002ccc:	00000000 	nop
9d002cd0:	02202021 	move	a0,s1
9d002cd4:	00402821 	move	a1,v0
9d002cd8:	0f401c9d 	jal	9d007274 <__mulsf3>
9d002cdc:	00000000 	nop
9d002ce0:	00408821 	move	s1,v0
9d002ce4:	8fc40048 	lw	a0,72(s8)
9d002ce8:	0f401e5d 	jal	9d007974 <fpsin>
9d002cec:	00000000 	nop
9d002cf0:	02202021 	move	a0,s1
9d002cf4:	00402821 	move	a1,v0
9d002cf8:	0f401c9d 	jal	9d007274 <__mulsf3>
9d002cfc:	00000000 	nop
9d002d00:	ae020000 	sw	v0,0(s0)
	c[2] = r0[2] * cos(vC);
9d002d04:	8fc200b4 	lw	v0,180(s8)
9d002d08:	24500008 	addiu	s0,v0,8
9d002d0c:	8fd10080 	lw	s1,128(s8)
9d002d10:	8fc4003c 	lw	a0,60(s8)
9d002d14:	0f401ea4 	jal	9d007a90 <cosf>
9d002d18:	00000000 	nop
9d002d1c:	02202021 	move	a0,s1
9d002d20:	00402821 	move	a1,v0
9d002d24:	0f401c9d 	jal	9d007274 <__mulsf3>
9d002d28:	00000000 	nop
9d002d2c:	ae020000 	sw	v0,0(s0)
}
9d002d30:	03c0e821 	move	sp,s8
9d002d34:	8fbf00a4 	lw	ra,164(sp)
9d002d38:	8fbe00a0 	lw	s8,160(sp)
9d002d3c:	8fb1009c 	lw	s1,156(sp)
9d002d40:	8fb00098 	lw	s0,152(sp)
9d002d44:	27bd00a8 	addiu	sp,sp,168
9d002d48:	03e00008 	jr	ra
9d002d4c:	00000000 	nop

9d002d50 <main>:


int main(){
9d002d50:	27bdff10 	addiu	sp,sp,-240
9d002d54:	afbf00ec 	sw	ra,236(sp)
9d002d58:	afbe00e8 	sw	s8,232(sp)
9d002d5c:	03a0f021 	move	s8,sp
	NU32_Startup();
9d002d60:	0f4018f7 	jal	9d0063dc <NU32_Startup>
9d002d64:	00000000 	nop
	__builtin_disable_interrupts();
9d002d68:	41626000 	di	v0
9d002d6c:	000000c0 	ehb
9d002d70:	00000000 	nop
	get_timeinit();
9d002d74:	0f4008a1 	jal	9d002284 <get_timeinit>
9d002d78:	00000000 	nop
	float AB=2.0, BC=2.0, AC=4.0;  // Sensor posistion in board
9d002d7c:	3c029d01 	lui	v0,0x9d01
9d002d80:	8c429044 	lw	v0,-28604(v0)
9d002d84:	afc20010 	sw	v0,16(s8)
9d002d88:	3c029d01 	lui	v0,0x9d01
9d002d8c:	8c429044 	lw	v0,-28604(v0)
9d002d90:	afc20014 	sw	v0,20(s8)
9d002d94:	3c029d01 	lui	v0,0x9d01
9d002d98:	8c429048 	lw	v0,-28600(v0)
9d002d9c:	afc20018 	sw	v0,24(s8)
    float A[3],B[3],C[3]; //sensor position
    char buffer[100];
    float Time[8];
    unsigned int stick[8];
    __builtin_enable_interrupts();
9d002da0:	41626020 	ei	v0
		// 	// printf("Ax= %6.3f Ay= %6.3f Az= %6.3f", A[0],A[1],A[2]);
		// 	// printf("Bx= %6.3f By= %6.3f Bz= %6.3f", B[0],B[1],B[2]);
		// 	// printf("Cx= %6.3f Cy= %6.3f Cz= %6.3f", C[0],C[1],C[2]);
		// }
		;
	}
9d002da4:	0b400b69 	j	9d002da4 <main+0x54>
9d002da8:	00000000 	nop

9d002dac <gelim>:
#include <math.h>

// Gaussian elimination to solve for x in ax=b; n is the length of vector b.
// Taken from http://www.crbond.com/nonlinear.htm 
int gelim(float **a,float *b,float *x, int n)
{
9d002dac:	27bdffc8 	addiu	sp,sp,-56
9d002db0:	afbf0034 	sw	ra,52(sp)
9d002db4:	afbe0030 	sw	s8,48(sp)
9d002db8:	afb1002c 	sw	s1,44(sp)
9d002dbc:	afb00028 	sw	s0,40(sp)
9d002dc0:	03a0f021 	move	s8,sp
9d002dc4:	afc40038 	sw	a0,56(s8)
9d002dc8:	afc5003c 	sw	a1,60(s8)
9d002dcc:	afc60040 	sw	a2,64(s8)
9d002dd0:	afc70044 	sw	a3,68(s8)
	float tmp,pvt,*t;
	int i,j,k;

	for (i=0;i<n;i++) {             // outer loop on rows
9d002dd4:	afc00014 	sw	zero,20(s8)
9d002dd8:	0b400c41 	j	9d003104 <gelim+0x358>
9d002ddc:	00000000 	nop
		pvt = a[i][i];              // get pivot value
9d002de0:	8fc20014 	lw	v0,20(s8)
9d002de4:	00021080 	sll	v0,v0,0x2
9d002de8:	8fc30038 	lw	v1,56(s8)
9d002dec:	00621021 	addu	v0,v1,v0
9d002df0:	8c430000 	lw	v1,0(v0)
9d002df4:	8fc20014 	lw	v0,20(s8)
9d002df8:	00021080 	sll	v0,v0,0x2
9d002dfc:	00621021 	addu	v0,v1,v0
9d002e00:	8c420000 	lw	v0,0(v0)
9d002e04:	afc20010 	sw	v0,16(s8)
		if (!pvt) {
9d002e08:	8fc40010 	lw	a0,16(s8)
9d002e0c:	00002821 	move	a1,zero
9d002e10:	0f40217a 	jal	9d0085e8 <__eqsf2>
9d002e14:	00000000 	nop
9d002e18:	14400055 	bnez	v0,9d002f70 <gelim+0x1c4>
9d002e1c:	00000000 	nop
			for (j=i+1;j<n;j++) {
9d002e20:	8fc20014 	lw	v0,20(s8)
9d002e24:	24420001 	addiu	v0,v0,1
9d002e28:	afc20018 	sw	v0,24(s8)
9d002e2c:	0b400ba2 	j	9d002e88 <gelim+0xdc>
9d002e30:	00000000 	nop
				if((pvt = a[j][i]) != 0.0) break;
9d002e34:	8fc20018 	lw	v0,24(s8)
9d002e38:	00021080 	sll	v0,v0,0x2
9d002e3c:	8fc30038 	lw	v1,56(s8)
9d002e40:	00621021 	addu	v0,v1,v0
9d002e44:	8c430000 	lw	v1,0(v0)
9d002e48:	8fc20014 	lw	v0,20(s8)
9d002e4c:	00021080 	sll	v0,v0,0x2
9d002e50:	00621021 	addu	v0,v1,v0
9d002e54:	8c420000 	lw	v0,0(v0)
9d002e58:	afc20010 	sw	v0,16(s8)
9d002e5c:	8fc40010 	lw	a0,16(s8)
9d002e60:	00002821 	move	a1,zero
9d002e64:	0f40217a 	jal	9d0085e8 <__eqsf2>
9d002e68:	00000000 	nop
9d002e6c:	10400003 	beqz	v0,9d002e7c <gelim+0xd0>
9d002e70:	00000000 	nop
9d002e74:	0b400ba7 	j	9d002e9c <gelim+0xf0>
9d002e78:	00000000 	nop
	int i,j,k;

	for (i=0;i<n;i++) {             // outer loop on rows
		pvt = a[i][i];              // get pivot value
		if (!pvt) {
			for (j=i+1;j<n;j++) {
9d002e7c:	8fc20018 	lw	v0,24(s8)
9d002e80:	24420001 	addiu	v0,v0,1
9d002e84:	afc20018 	sw	v0,24(s8)
9d002e88:	8fc30018 	lw	v1,24(s8)
9d002e8c:	8fc20044 	lw	v0,68(s8)
9d002e90:	0062102a 	slt	v0,v1,v0
9d002e94:	1440ffe7 	bnez	v0,9d002e34 <gelim+0x88>
9d002e98:	00000000 	nop
				if((pvt = a[j][i]) != 0.0) break;
			}
			if (!pvt) return 1;     // nowhere to run!
9d002e9c:	8fc40010 	lw	a0,16(s8)
9d002ea0:	00002821 	move	a1,zero
9d002ea4:	0f40217a 	jal	9d0085e8 <__eqsf2>
9d002ea8:	00000000 	nop
9d002eac:	14400004 	bnez	v0,9d002ec0 <gelim+0x114>
9d002eb0:	00000000 	nop
9d002eb4:	24020001 	li	v0,1
9d002eb8:	0b400ca0 	j	9d003280 <gelim+0x4d4>
9d002ebc:	00000000 	nop
			t=a[j];                 // swap matrix rows...
9d002ec0:	8fc20018 	lw	v0,24(s8)
9d002ec4:	00021080 	sll	v0,v0,0x2
9d002ec8:	8fc30038 	lw	v1,56(s8)
9d002ecc:	00621021 	addu	v0,v1,v0
9d002ed0:	8c420000 	lw	v0,0(v0)
9d002ed4:	afc20020 	sw	v0,32(s8)
			a[j]=a[i];
9d002ed8:	8fc20018 	lw	v0,24(s8)
9d002edc:	00021080 	sll	v0,v0,0x2
9d002ee0:	8fc30038 	lw	v1,56(s8)
9d002ee4:	00621021 	addu	v0,v1,v0
9d002ee8:	8fc30014 	lw	v1,20(s8)
9d002eec:	00031880 	sll	v1,v1,0x2
9d002ef0:	8fc40038 	lw	a0,56(s8)
9d002ef4:	00831821 	addu	v1,a0,v1
9d002ef8:	8c630000 	lw	v1,0(v1)
9d002efc:	ac430000 	sw	v1,0(v0)
			a[i]=t;
9d002f00:	8fc20014 	lw	v0,20(s8)
9d002f04:	00021080 	sll	v0,v0,0x2
9d002f08:	8fc30038 	lw	v1,56(s8)
9d002f0c:	00621021 	addu	v0,v1,v0
9d002f10:	8fc30020 	lw	v1,32(s8)
9d002f14:	ac430000 	sw	v1,0(v0)
			tmp=b[j];               // ...and result vector
9d002f18:	8fc20018 	lw	v0,24(s8)
9d002f1c:	00021080 	sll	v0,v0,0x2
9d002f20:	8fc3003c 	lw	v1,60(s8)
9d002f24:	00621021 	addu	v0,v1,v0
9d002f28:	8c420000 	lw	v0,0(v0)
9d002f2c:	afc20024 	sw	v0,36(s8)
			b[j]=b[i];
9d002f30:	8fc20018 	lw	v0,24(s8)
9d002f34:	00021080 	sll	v0,v0,0x2
9d002f38:	8fc3003c 	lw	v1,60(s8)
9d002f3c:	00621021 	addu	v0,v1,v0
9d002f40:	8fc30014 	lw	v1,20(s8)
9d002f44:	00031880 	sll	v1,v1,0x2
9d002f48:	8fc4003c 	lw	a0,60(s8)
9d002f4c:	00831821 	addu	v1,a0,v1
9d002f50:	8c630000 	lw	v1,0(v1)
9d002f54:	ac430000 	sw	v1,0(v0)
			b[i]=tmp;        
9d002f58:	8fc20014 	lw	v0,20(s8)
9d002f5c:	00021080 	sll	v0,v0,0x2
9d002f60:	8fc3003c 	lw	v1,60(s8)
9d002f64:	00621021 	addu	v0,v1,v0
9d002f68:	8fc30024 	lw	v1,36(s8)
9d002f6c:	ac430000 	sw	v1,0(v0)
		}
		// (virtual) Gaussian elimination of column
		for (k=i+1;k<n;k++) {       // alt: for (k=n-1;k>i;k--)
9d002f70:	8fc20014 	lw	v0,20(s8)
9d002f74:	24420001 	addiu	v0,v0,1
9d002f78:	afc2001c 	sw	v0,28(s8)
9d002f7c:	0b400c39 	j	9d0030e4 <gelim+0x338>
9d002f80:	00000000 	nop
			tmp = a[k][i]/pvt;
9d002f84:	8fc2001c 	lw	v0,28(s8)
9d002f88:	00021080 	sll	v0,v0,0x2
9d002f8c:	8fc30038 	lw	v1,56(s8)
9d002f90:	00621021 	addu	v0,v1,v0
9d002f94:	8c430000 	lw	v1,0(v0)
9d002f98:	8fc20014 	lw	v0,20(s8)
9d002f9c:	00021080 	sll	v0,v0,0x2
9d002fa0:	00621021 	addu	v0,v1,v0
9d002fa4:	8c420000 	lw	v0,0(v0)
9d002fa8:	00402021 	move	a0,v0
9d002fac:	8fc50010 	lw	a1,16(s8)
9d002fb0:	0f401b90 	jal	9d006e40 <__divsf3>
9d002fb4:	00000000 	nop
9d002fb8:	afc20024 	sw	v0,36(s8)
			for (j=i+1;j<n;j++) {   // alt: for (j=n-1;j>i;j--)
9d002fbc:	8fc20014 	lw	v0,20(s8)
9d002fc0:	24420001 	addiu	v0,v0,1
9d002fc4:	afc20018 	sw	v0,24(s8)
9d002fc8:	0b400c1a 	j	9d003068 <gelim+0x2bc>
9d002fcc:	00000000 	nop
				a[k][j] -= tmp*a[i][j];
9d002fd0:	8fc2001c 	lw	v0,28(s8)
9d002fd4:	00021080 	sll	v0,v0,0x2
9d002fd8:	8fc30038 	lw	v1,56(s8)
9d002fdc:	00621021 	addu	v0,v1,v0
9d002fe0:	8c430000 	lw	v1,0(v0)
9d002fe4:	8fc20018 	lw	v0,24(s8)
9d002fe8:	00021080 	sll	v0,v0,0x2
9d002fec:	00628021 	addu	s0,v1,v0
9d002ff0:	8fc2001c 	lw	v0,28(s8)
9d002ff4:	00021080 	sll	v0,v0,0x2
9d002ff8:	8fc30038 	lw	v1,56(s8)
9d002ffc:	00621021 	addu	v0,v1,v0
9d003000:	8c430000 	lw	v1,0(v0)
9d003004:	8fc20018 	lw	v0,24(s8)
9d003008:	00021080 	sll	v0,v0,0x2
9d00300c:	00621021 	addu	v0,v1,v0
9d003010:	8c510000 	lw	s1,0(v0)
9d003014:	8fc20014 	lw	v0,20(s8)
9d003018:	00021080 	sll	v0,v0,0x2
9d00301c:	8fc30038 	lw	v1,56(s8)
9d003020:	00621021 	addu	v0,v1,v0
9d003024:	8c430000 	lw	v1,0(v0)
9d003028:	8fc20018 	lw	v0,24(s8)
9d00302c:	00021080 	sll	v0,v0,0x2
9d003030:	00621021 	addu	v0,v1,v0
9d003034:	8c420000 	lw	v0,0(v0)
9d003038:	00402021 	move	a0,v0
9d00303c:	8fc50024 	lw	a1,36(s8)
9d003040:	0f401c9d 	jal	9d007274 <__mulsf3>
9d003044:	00000000 	nop
9d003048:	02202021 	move	a0,s1
9d00304c:	00402821 	move	a1,v0
9d003050:	0f401af2 	jal	9d006bc8 <__subsf3>
9d003054:	00000000 	nop
9d003058:	ae020000 	sw	v0,0(s0)
			b[i]=tmp;        
		}
		// (virtual) Gaussian elimination of column
		for (k=i+1;k<n;k++) {       // alt: for (k=n-1;k>i;k--)
			tmp = a[k][i]/pvt;
			for (j=i+1;j<n;j++) {   // alt: for (j=n-1;j>i;j--)
9d00305c:	8fc20018 	lw	v0,24(s8)
9d003060:	24420001 	addiu	v0,v0,1
9d003064:	afc20018 	sw	v0,24(s8)
9d003068:	8fc30018 	lw	v1,24(s8)
9d00306c:	8fc20044 	lw	v0,68(s8)
9d003070:	0062102a 	slt	v0,v1,v0
9d003074:	1440ffd6 	bnez	v0,9d002fd0 <gelim+0x224>
9d003078:	00000000 	nop
				a[k][j] -= tmp*a[i][j];
			}
			b[k] -= tmp*b[i];
9d00307c:	8fc2001c 	lw	v0,28(s8)
9d003080:	00021080 	sll	v0,v0,0x2
9d003084:	8fc3003c 	lw	v1,60(s8)
9d003088:	00628021 	addu	s0,v1,v0
9d00308c:	8fc2001c 	lw	v0,28(s8)
9d003090:	00021080 	sll	v0,v0,0x2
9d003094:	8fc3003c 	lw	v1,60(s8)
9d003098:	00621021 	addu	v0,v1,v0
9d00309c:	8c510000 	lw	s1,0(v0)
9d0030a0:	8fc20014 	lw	v0,20(s8)
9d0030a4:	00021080 	sll	v0,v0,0x2
9d0030a8:	8fc3003c 	lw	v1,60(s8)
9d0030ac:	00621021 	addu	v0,v1,v0
9d0030b0:	8c420000 	lw	v0,0(v0)
9d0030b4:	00402021 	move	a0,v0
9d0030b8:	8fc50024 	lw	a1,36(s8)
9d0030bc:	0f401c9d 	jal	9d007274 <__mulsf3>
9d0030c0:	00000000 	nop
9d0030c4:	02202021 	move	a0,s1
9d0030c8:	00402821 	move	a1,v0
9d0030cc:	0f401af2 	jal	9d006bc8 <__subsf3>
9d0030d0:	00000000 	nop
9d0030d4:	ae020000 	sw	v0,0(s0)
			tmp=b[j];               // ...and result vector
			b[j]=b[i];
			b[i]=tmp;        
		}
		// (virtual) Gaussian elimination of column
		for (k=i+1;k<n;k++) {       // alt: for (k=n-1;k>i;k--)
9d0030d8:	8fc2001c 	lw	v0,28(s8)
9d0030dc:	24420001 	addiu	v0,v0,1
9d0030e0:	afc2001c 	sw	v0,28(s8)
9d0030e4:	8fc3001c 	lw	v1,28(s8)
9d0030e8:	8fc20044 	lw	v0,68(s8)
9d0030ec:	0062102a 	slt	v0,v1,v0
9d0030f0:	1440ffa4 	bnez	v0,9d002f84 <gelim+0x1d8>
9d0030f4:	00000000 	nop
int gelim(float **a,float *b,float *x, int n)
{
	float tmp,pvt,*t;
	int i,j,k;

	for (i=0;i<n;i++) {             // outer loop on rows
9d0030f8:	8fc20014 	lw	v0,20(s8)
9d0030fc:	24420001 	addiu	v0,v0,1
9d003100:	afc20014 	sw	v0,20(s8)
9d003104:	8fc30014 	lw	v1,20(s8)
9d003108:	8fc20044 	lw	v0,68(s8)
9d00310c:	0062102a 	slt	v0,v1,v0
9d003110:	1440ff33 	bnez	v0,9d002de0 <gelim+0x34>
9d003114:	00000000 	nop
			}
			b[k] -= tmp*b[i];
		}
	}
	// Do back substitution
	for (i=n-1;i>=0;i--) {
9d003118:	8fc20044 	lw	v0,68(s8)
9d00311c:	2442ffff 	addiu	v0,v0,-1
9d003120:	afc20014 	sw	v0,20(s8)
9d003124:	0b400c9c 	j	9d003270 <gelim+0x4c4>
9d003128:	00000000 	nop
		x[i]=b[i];
9d00312c:	8fc20014 	lw	v0,20(s8)
9d003130:	00021080 	sll	v0,v0,0x2
9d003134:	8fc30040 	lw	v1,64(s8)
9d003138:	00621021 	addu	v0,v1,v0
9d00313c:	8fc30014 	lw	v1,20(s8)
9d003140:	00031880 	sll	v1,v1,0x2
9d003144:	8fc4003c 	lw	a0,60(s8)
9d003148:	00831821 	addu	v1,a0,v1
9d00314c:	8c630000 	lw	v1,0(v1)
9d003150:	ac430000 	sw	v1,0(v0)
		for (j=n-1;j>i;j--) {
9d003154:	8fc20044 	lw	v0,68(s8)
9d003158:	2442ffff 	addiu	v0,v0,-1
9d00315c:	afc20018 	sw	v0,24(s8)
9d003160:	0b400c7d 	j	9d0031f4 <gelim+0x448>
9d003164:	00000000 	nop
			x[i] -= a[i][j]*x[j];
9d003168:	8fc20014 	lw	v0,20(s8)
9d00316c:	00021080 	sll	v0,v0,0x2
9d003170:	8fc30040 	lw	v1,64(s8)
9d003174:	00628021 	addu	s0,v1,v0
9d003178:	8fc20014 	lw	v0,20(s8)
9d00317c:	00021080 	sll	v0,v0,0x2
9d003180:	8fc30040 	lw	v1,64(s8)
9d003184:	00621021 	addu	v0,v1,v0
9d003188:	8c510000 	lw	s1,0(v0)
9d00318c:	8fc20014 	lw	v0,20(s8)
9d003190:	00021080 	sll	v0,v0,0x2
9d003194:	8fc30038 	lw	v1,56(s8)
9d003198:	00621021 	addu	v0,v1,v0
9d00319c:	8c430000 	lw	v1,0(v0)
9d0031a0:	8fc20018 	lw	v0,24(s8)
9d0031a4:	00021080 	sll	v0,v0,0x2
9d0031a8:	00621021 	addu	v0,v1,v0
9d0031ac:	8c430000 	lw	v1,0(v0)
9d0031b0:	8fc20018 	lw	v0,24(s8)
9d0031b4:	00021080 	sll	v0,v0,0x2
9d0031b8:	8fc40040 	lw	a0,64(s8)
9d0031bc:	00821021 	addu	v0,a0,v0
9d0031c0:	8c420000 	lw	v0,0(v0)
9d0031c4:	00602021 	move	a0,v1
9d0031c8:	00402821 	move	a1,v0
9d0031cc:	0f401c9d 	jal	9d007274 <__mulsf3>
9d0031d0:	00000000 	nop
9d0031d4:	02202021 	move	a0,s1
9d0031d8:	00402821 	move	a1,v0
9d0031dc:	0f401af2 	jal	9d006bc8 <__subsf3>
9d0031e0:	00000000 	nop
9d0031e4:	ae020000 	sw	v0,0(s0)
		}
	}
	// Do back substitution
	for (i=n-1;i>=0;i--) {
		x[i]=b[i];
		for (j=n-1;j>i;j--) {
9d0031e8:	8fc20018 	lw	v0,24(s8)
9d0031ec:	2442ffff 	addiu	v0,v0,-1
9d0031f0:	afc20018 	sw	v0,24(s8)
9d0031f4:	8fc30018 	lw	v1,24(s8)
9d0031f8:	8fc20014 	lw	v0,20(s8)
9d0031fc:	0043102a 	slt	v0,v0,v1
9d003200:	1440ffd9 	bnez	v0,9d003168 <gelim+0x3bc>
9d003204:	00000000 	nop
			x[i] -= a[i][j]*x[j];
		}
		x[i] /= a[i][i];
9d003208:	8fc20014 	lw	v0,20(s8)
9d00320c:	00021080 	sll	v0,v0,0x2
9d003210:	8fc30040 	lw	v1,64(s8)
9d003214:	00628021 	addu	s0,v1,v0
9d003218:	8fc20014 	lw	v0,20(s8)
9d00321c:	00021080 	sll	v0,v0,0x2
9d003220:	8fc30040 	lw	v1,64(s8)
9d003224:	00621021 	addu	v0,v1,v0
9d003228:	8c430000 	lw	v1,0(v0)
9d00322c:	8fc20014 	lw	v0,20(s8)
9d003230:	00021080 	sll	v0,v0,0x2
9d003234:	8fc40038 	lw	a0,56(s8)
9d003238:	00821021 	addu	v0,a0,v0
9d00323c:	8c440000 	lw	a0,0(v0)
9d003240:	8fc20014 	lw	v0,20(s8)
9d003244:	00021080 	sll	v0,v0,0x2
9d003248:	00821021 	addu	v0,a0,v0
9d00324c:	8c420000 	lw	v0,0(v0)
9d003250:	00602021 	move	a0,v1
9d003254:	00402821 	move	a1,v0
9d003258:	0f401b90 	jal	9d006e40 <__divsf3>
9d00325c:	00000000 	nop
9d003260:	ae020000 	sw	v0,0(s0)
			}
			b[k] -= tmp*b[i];
		}
	}
	// Do back substitution
	for (i=n-1;i>=0;i--) {
9d003264:	8fc20014 	lw	v0,20(s8)
9d003268:	2442ffff 	addiu	v0,v0,-1
9d00326c:	afc20014 	sw	v0,20(s8)
9d003270:	8fc20014 	lw	v0,20(s8)
9d003274:	0441ffad 	bgez	v0,9d00312c <gelim+0x380>
9d003278:	00000000 	nop
		for (j=n-1;j>i;j--) {
			x[i] -= a[i][j]*x[j];
		}
		x[i] /= a[i][i];
	}
	return 0;
9d00327c:	00001021 	move	v0,zero
}
9d003280:	03c0e821 	move	sp,s8
9d003284:	8fbf0034 	lw	ra,52(sp)
9d003288:	8fbe0030 	lw	s8,48(sp)
9d00328c:	8fb1002c 	lw	s1,44(sp)
9d003290:	8fb00028 	lw	s0,40(sp)
9d003294:	27bd0038 	addiu	sp,sp,56
9d003298:	03e00008 	jr	ra
9d00329c:	00000000 	nop

9d0032a0 <f>:

// vector function representing the set of nonlinear equations to solve, of the form f(x)=0
void f(float* x, float* eqs, float AB, float BC, float AC, float cAB, float cBC, float cAC) {
9d0032a0:	27bdffe0 	addiu	sp,sp,-32
9d0032a4:	afbf001c 	sw	ra,28(sp)
9d0032a8:	afbe0018 	sw	s8,24(sp)
9d0032ac:	afb10014 	sw	s1,20(sp)
9d0032b0:	afb00010 	sw	s0,16(sp)
9d0032b4:	03a0f021 	move	s8,sp
9d0032b8:	afc40020 	sw	a0,32(s8)
9d0032bc:	afc50024 	sw	a1,36(s8)
9d0032c0:	afc60028 	sw	a2,40(s8)
9d0032c4:	afc7002c 	sw	a3,44(s8)
	eqs[0] = pow(x[0],2) + pow(x[1],2) - 2*x[0]*x[1]*cAB - pow(AB, 2);
9d0032c8:	8fc20020 	lw	v0,32(s8)
9d0032cc:	8c430000 	lw	v1,0(v0)
9d0032d0:	3c029d01 	lui	v0,0x9d01
9d0032d4:	8c4290b4 	lw	v0,-28492(v0)
9d0032d8:	00602021 	move	a0,v1
9d0032dc:	00402821 	move	a1,v0
9d0032e0:	0f401d71 	jal	9d0075c4 <.LFE2>
9d0032e4:	00000000 	nop
9d0032e8:	00408021 	move	s0,v0
9d0032ec:	8fc20020 	lw	v0,32(s8)
9d0032f0:	24420004 	addiu	v0,v0,4
9d0032f4:	8c430000 	lw	v1,0(v0)
9d0032f8:	3c029d01 	lui	v0,0x9d01
9d0032fc:	8c4290b4 	lw	v0,-28492(v0)
9d003300:	00602021 	move	a0,v1
9d003304:	00402821 	move	a1,v0
9d003308:	0f401d71 	jal	9d0075c4 <.LFE2>
9d00330c:	00000000 	nop
9d003310:	02002021 	move	a0,s0
9d003314:	00402821 	move	a1,v0
9d003318:	0f401af4 	jal	9d006bd0 <__addsf3>
9d00331c:	00000000 	nop
9d003320:	00408021 	move	s0,v0
9d003324:	8fc20020 	lw	v0,32(s8)
9d003328:	8c420000 	lw	v0,0(v0)
9d00332c:	00402021 	move	a0,v0
9d003330:	00402821 	move	a1,v0
9d003334:	0f401af4 	jal	9d006bd0 <__addsf3>
9d003338:	00000000 	nop
9d00333c:	00401821 	move	v1,v0
9d003340:	8fc20020 	lw	v0,32(s8)
9d003344:	24420004 	addiu	v0,v0,4
9d003348:	8c420000 	lw	v0,0(v0)
9d00334c:	00602021 	move	a0,v1
9d003350:	00402821 	move	a1,v0
9d003354:	0f401c9d 	jal	9d007274 <__mulsf3>
9d003358:	00000000 	nop
9d00335c:	00402021 	move	a0,v0
9d003360:	8fc50034 	lw	a1,52(s8)
9d003364:	0f401c9d 	jal	9d007274 <__mulsf3>
9d003368:	00000000 	nop
9d00336c:	02002021 	move	a0,s0
9d003370:	00402821 	move	a1,v0
9d003374:	0f401af2 	jal	9d006bc8 <__subsf3>
9d003378:	00000000 	nop
9d00337c:	00408021 	move	s0,v0
9d003380:	3c029d01 	lui	v0,0x9d01
9d003384:	8c4290b4 	lw	v0,-28492(v0)
9d003388:	8fc40028 	lw	a0,40(s8)
9d00338c:	00402821 	move	a1,v0
9d003390:	0f401d71 	jal	9d0075c4 <.LFE2>
9d003394:	00000000 	nop
9d003398:	02002021 	move	a0,s0
9d00339c:	00402821 	move	a1,v0
9d0033a0:	0f401af2 	jal	9d006bc8 <__subsf3>
9d0033a4:	00000000 	nop
9d0033a8:	00401821 	move	v1,v0
9d0033ac:	8fc20024 	lw	v0,36(s8)
9d0033b0:	ac430000 	sw	v1,0(v0)
	eqs[1] = pow(x[1],2) + pow(x[2],2) - 2*x[1]*x[2]*cBC - pow(BC, 2);
9d0033b4:	8fc20024 	lw	v0,36(s8)
9d0033b8:	24500004 	addiu	s0,v0,4
9d0033bc:	8fc20020 	lw	v0,32(s8)
9d0033c0:	24420004 	addiu	v0,v0,4
9d0033c4:	8c430000 	lw	v1,0(v0)
9d0033c8:	3c029d01 	lui	v0,0x9d01
9d0033cc:	8c4290b4 	lw	v0,-28492(v0)
9d0033d0:	00602021 	move	a0,v1
9d0033d4:	00402821 	move	a1,v0
9d0033d8:	0f401d71 	jal	9d0075c4 <.LFE2>
9d0033dc:	00000000 	nop
9d0033e0:	00408821 	move	s1,v0
9d0033e4:	8fc20020 	lw	v0,32(s8)
9d0033e8:	24420008 	addiu	v0,v0,8
9d0033ec:	8c430000 	lw	v1,0(v0)
9d0033f0:	3c029d01 	lui	v0,0x9d01
9d0033f4:	8c4290b4 	lw	v0,-28492(v0)
9d0033f8:	00602021 	move	a0,v1
9d0033fc:	00402821 	move	a1,v0
9d003400:	0f401d71 	jal	9d0075c4 <.LFE2>
9d003404:	00000000 	nop
9d003408:	02202021 	move	a0,s1
9d00340c:	00402821 	move	a1,v0
9d003410:	0f401af4 	jal	9d006bd0 <__addsf3>
9d003414:	00000000 	nop
9d003418:	00408821 	move	s1,v0
9d00341c:	8fc20020 	lw	v0,32(s8)
9d003420:	24420004 	addiu	v0,v0,4
9d003424:	8c420000 	lw	v0,0(v0)
9d003428:	00402021 	move	a0,v0
9d00342c:	00402821 	move	a1,v0
9d003430:	0f401af4 	jal	9d006bd0 <__addsf3>
9d003434:	00000000 	nop
9d003438:	00401821 	move	v1,v0
9d00343c:	8fc20020 	lw	v0,32(s8)
9d003440:	24420008 	addiu	v0,v0,8
9d003444:	8c420000 	lw	v0,0(v0)
9d003448:	00602021 	move	a0,v1
9d00344c:	00402821 	move	a1,v0
9d003450:	0f401c9d 	jal	9d007274 <__mulsf3>
9d003454:	00000000 	nop
9d003458:	00402021 	move	a0,v0
9d00345c:	8fc50038 	lw	a1,56(s8)
9d003460:	0f401c9d 	jal	9d007274 <__mulsf3>
9d003464:	00000000 	nop
9d003468:	02202021 	move	a0,s1
9d00346c:	00402821 	move	a1,v0
9d003470:	0f401af2 	jal	9d006bc8 <__subsf3>
9d003474:	00000000 	nop
9d003478:	00408821 	move	s1,v0
9d00347c:	3c029d01 	lui	v0,0x9d01
9d003480:	8c4290b4 	lw	v0,-28492(v0)
9d003484:	8fc4002c 	lw	a0,44(s8)
9d003488:	00402821 	move	a1,v0
9d00348c:	0f401d71 	jal	9d0075c4 <.LFE2>
9d003490:	00000000 	nop
9d003494:	02202021 	move	a0,s1
9d003498:	00402821 	move	a1,v0
9d00349c:	0f401af2 	jal	9d006bc8 <__subsf3>
9d0034a0:	00000000 	nop
9d0034a4:	ae020000 	sw	v0,0(s0)
	eqs[2] = pow(x[0],2) + pow(x[2],2) - 2*x[0]*x[2]*cAC - pow(AC, 2);
9d0034a8:	8fc20024 	lw	v0,36(s8)
9d0034ac:	24500008 	addiu	s0,v0,8
9d0034b0:	8fc20020 	lw	v0,32(s8)
9d0034b4:	8c430000 	lw	v1,0(v0)
9d0034b8:	3c029d01 	lui	v0,0x9d01
9d0034bc:	8c4290b4 	lw	v0,-28492(v0)
9d0034c0:	00602021 	move	a0,v1
9d0034c4:	00402821 	move	a1,v0
9d0034c8:	0f401d71 	jal	9d0075c4 <.LFE2>
9d0034cc:	00000000 	nop
9d0034d0:	00408821 	move	s1,v0
9d0034d4:	8fc20020 	lw	v0,32(s8)
9d0034d8:	24420008 	addiu	v0,v0,8
9d0034dc:	8c430000 	lw	v1,0(v0)
9d0034e0:	3c029d01 	lui	v0,0x9d01
9d0034e4:	8c4290b4 	lw	v0,-28492(v0)
9d0034e8:	00602021 	move	a0,v1
9d0034ec:	00402821 	move	a1,v0
9d0034f0:	0f401d71 	jal	9d0075c4 <.LFE2>
9d0034f4:	00000000 	nop
9d0034f8:	02202021 	move	a0,s1
9d0034fc:	00402821 	move	a1,v0
9d003500:	0f401af4 	jal	9d006bd0 <__addsf3>
9d003504:	00000000 	nop
9d003508:	00408821 	move	s1,v0
9d00350c:	8fc20020 	lw	v0,32(s8)
9d003510:	8c420000 	lw	v0,0(v0)
9d003514:	00402021 	move	a0,v0
9d003518:	00402821 	move	a1,v0
9d00351c:	0f401af4 	jal	9d006bd0 <__addsf3>
9d003520:	00000000 	nop
9d003524:	00401821 	move	v1,v0
9d003528:	8fc20020 	lw	v0,32(s8)
9d00352c:	24420008 	addiu	v0,v0,8
9d003530:	8c420000 	lw	v0,0(v0)
9d003534:	00602021 	move	a0,v1
9d003538:	00402821 	move	a1,v0
9d00353c:	0f401c9d 	jal	9d007274 <__mulsf3>
9d003540:	00000000 	nop
9d003544:	00402021 	move	a0,v0
9d003548:	8fc5003c 	lw	a1,60(s8)
9d00354c:	0f401c9d 	jal	9d007274 <__mulsf3>
9d003550:	00000000 	nop
9d003554:	02202021 	move	a0,s1
9d003558:	00402821 	move	a1,v0
9d00355c:	0f401af2 	jal	9d006bc8 <__subsf3>
9d003560:	00000000 	nop
9d003564:	00408821 	move	s1,v0
9d003568:	3c029d01 	lui	v0,0x9d01
9d00356c:	8c4290b4 	lw	v0,-28492(v0)
9d003570:	8fc40030 	lw	a0,48(s8)
9d003574:	00402821 	move	a1,v0
9d003578:	0f401d71 	jal	9d0075c4 <.LFE2>
9d00357c:	00000000 	nop
9d003580:	02202021 	move	a0,s1
9d003584:	00402821 	move	a1,v0
9d003588:	0f401af2 	jal	9d006bc8 <__subsf3>
9d00358c:	00000000 	nop
9d003590:	ae020000 	sw	v0,0(s0)
}
9d003594:	03c0e821 	move	sp,s8
9d003598:	8fbf001c 	lw	ra,28(sp)
9d00359c:	8fbe0018 	lw	s8,24(sp)
9d0035a0:	8fb10014 	lw	s1,20(sp)
9d0035a4:	8fb00010 	lw	s0,16(sp)
9d0035a8:	27bd0020 	addiu	sp,sp,32
9d0035ac:	03e00008 	jr	ra
9d0035b0:	00000000 	nop

9d0035b4 <jac>:

// Jacobian of the above function
void jac(float* x, float **jacobian, float cAB, float cBC, float cAC) {
9d0035b4:	27bdffe0 	addiu	sp,sp,-32
9d0035b8:	afbf001c 	sw	ra,28(sp)
9d0035bc:	afbe0018 	sw	s8,24(sp)
9d0035c0:	afb10014 	sw	s1,20(sp)
9d0035c4:	afb00010 	sw	s0,16(sp)
9d0035c8:	03a0f021 	move	s8,sp
9d0035cc:	afc40020 	sw	a0,32(s8)
9d0035d0:	afc50024 	sw	a1,36(s8)
9d0035d4:	afc60028 	sw	a2,40(s8)
9d0035d8:	afc7002c 	sw	a3,44(s8)
	jacobian[0][0] = 2*x[0] - 2*x[1]*cAB;
9d0035dc:	8fc20024 	lw	v0,36(s8)
9d0035e0:	8c500000 	lw	s0,0(v0)
9d0035e4:	8fc20020 	lw	v0,32(s8)
9d0035e8:	8c420000 	lw	v0,0(v0)
9d0035ec:	00402021 	move	a0,v0
9d0035f0:	00402821 	move	a1,v0
9d0035f4:	0f401af4 	jal	9d006bd0 <__addsf3>
9d0035f8:	00000000 	nop
9d0035fc:	00408821 	move	s1,v0
9d003600:	8fc20020 	lw	v0,32(s8)
9d003604:	24420004 	addiu	v0,v0,4
9d003608:	8c420000 	lw	v0,0(v0)
9d00360c:	00402021 	move	a0,v0
9d003610:	00402821 	move	a1,v0
9d003614:	0f401af4 	jal	9d006bd0 <__addsf3>
9d003618:	00000000 	nop
9d00361c:	00402021 	move	a0,v0
9d003620:	8fc50028 	lw	a1,40(s8)
9d003624:	0f401c9d 	jal	9d007274 <__mulsf3>
9d003628:	00000000 	nop
9d00362c:	02202021 	move	a0,s1
9d003630:	00402821 	move	a1,v0
9d003634:	0f401af2 	jal	9d006bc8 <__subsf3>
9d003638:	00000000 	nop
9d00363c:	ae020000 	sw	v0,0(s0)
	jacobian[0][1] = 2*x[1] - 2*x[0]*cAB;
9d003640:	8fc20024 	lw	v0,36(s8)
9d003644:	8c420000 	lw	v0,0(v0)
9d003648:	24500004 	addiu	s0,v0,4
9d00364c:	8fc20020 	lw	v0,32(s8)
9d003650:	24420004 	addiu	v0,v0,4
9d003654:	8c420000 	lw	v0,0(v0)
9d003658:	00402021 	move	a0,v0
9d00365c:	00402821 	move	a1,v0
9d003660:	0f401af4 	jal	9d006bd0 <__addsf3>
9d003664:	00000000 	nop
9d003668:	00408821 	move	s1,v0
9d00366c:	8fc20020 	lw	v0,32(s8)
9d003670:	8c420000 	lw	v0,0(v0)
9d003674:	00402021 	move	a0,v0
9d003678:	00402821 	move	a1,v0
9d00367c:	0f401af4 	jal	9d006bd0 <__addsf3>
9d003680:	00000000 	nop
9d003684:	00402021 	move	a0,v0
9d003688:	8fc50028 	lw	a1,40(s8)
9d00368c:	0f401c9d 	jal	9d007274 <__mulsf3>
9d003690:	00000000 	nop
9d003694:	02202021 	move	a0,s1
9d003698:	00402821 	move	a1,v0
9d00369c:	0f401af2 	jal	9d006bc8 <__subsf3>
9d0036a0:	00000000 	nop
9d0036a4:	ae020000 	sw	v0,0(s0)
	jacobian[0][2] = 0;
9d0036a8:	8fc20024 	lw	v0,36(s8)
9d0036ac:	8c420000 	lw	v0,0(v0)
9d0036b0:	24420008 	addiu	v0,v0,8
9d0036b4:	00001821 	move	v1,zero
9d0036b8:	ac430000 	sw	v1,0(v0)
	
	jacobian[1][0] = 0;
9d0036bc:	8fc20024 	lw	v0,36(s8)
9d0036c0:	24420004 	addiu	v0,v0,4
9d0036c4:	8c420000 	lw	v0,0(v0)
9d0036c8:	00001821 	move	v1,zero
9d0036cc:	ac430000 	sw	v1,0(v0)
	jacobian[1][1] = 2*x[1] - 2*x[2]*cBC;
9d0036d0:	8fc20024 	lw	v0,36(s8)
9d0036d4:	24420004 	addiu	v0,v0,4
9d0036d8:	8c420000 	lw	v0,0(v0)
9d0036dc:	24500004 	addiu	s0,v0,4
9d0036e0:	8fc20020 	lw	v0,32(s8)
9d0036e4:	24420004 	addiu	v0,v0,4
9d0036e8:	8c420000 	lw	v0,0(v0)
9d0036ec:	00402021 	move	a0,v0
9d0036f0:	00402821 	move	a1,v0
9d0036f4:	0f401af4 	jal	9d006bd0 <__addsf3>
9d0036f8:	00000000 	nop
9d0036fc:	00408821 	move	s1,v0
9d003700:	8fc20020 	lw	v0,32(s8)
9d003704:	24420008 	addiu	v0,v0,8
9d003708:	8c420000 	lw	v0,0(v0)
9d00370c:	00402021 	move	a0,v0
9d003710:	00402821 	move	a1,v0
9d003714:	0f401af4 	jal	9d006bd0 <__addsf3>
9d003718:	00000000 	nop
9d00371c:	00402021 	move	a0,v0
9d003720:	8fc5002c 	lw	a1,44(s8)
9d003724:	0f401c9d 	jal	9d007274 <__mulsf3>
9d003728:	00000000 	nop
9d00372c:	02202021 	move	a0,s1
9d003730:	00402821 	move	a1,v0
9d003734:	0f401af2 	jal	9d006bc8 <__subsf3>
9d003738:	00000000 	nop
9d00373c:	ae020000 	sw	v0,0(s0)
	jacobian[1][2] = 2*x[2] - 2*x[1]*cBC;
9d003740:	8fc20024 	lw	v0,36(s8)
9d003744:	24420004 	addiu	v0,v0,4
9d003748:	8c420000 	lw	v0,0(v0)
9d00374c:	24500008 	addiu	s0,v0,8
9d003750:	8fc20020 	lw	v0,32(s8)
9d003754:	24420008 	addiu	v0,v0,8
9d003758:	8c420000 	lw	v0,0(v0)
9d00375c:	00402021 	move	a0,v0
9d003760:	00402821 	move	a1,v0
9d003764:	0f401af4 	jal	9d006bd0 <__addsf3>
9d003768:	00000000 	nop
9d00376c:	00408821 	move	s1,v0
9d003770:	8fc20020 	lw	v0,32(s8)
9d003774:	24420004 	addiu	v0,v0,4
9d003778:	8c420000 	lw	v0,0(v0)
9d00377c:	00402021 	move	a0,v0
9d003780:	00402821 	move	a1,v0
9d003784:	0f401af4 	jal	9d006bd0 <__addsf3>
9d003788:	00000000 	nop
9d00378c:	00402021 	move	a0,v0
9d003790:	8fc5002c 	lw	a1,44(s8)
9d003794:	0f401c9d 	jal	9d007274 <__mulsf3>
9d003798:	00000000 	nop
9d00379c:	02202021 	move	a0,s1
9d0037a0:	00402821 	move	a1,v0
9d0037a4:	0f401af2 	jal	9d006bc8 <__subsf3>
9d0037a8:	00000000 	nop
9d0037ac:	ae020000 	sw	v0,0(s0)
	
	jacobian[2][0] = 2*x[0] - 2*x[2]*cAC;
9d0037b0:	8fc20024 	lw	v0,36(s8)
9d0037b4:	24420008 	addiu	v0,v0,8
9d0037b8:	8c500000 	lw	s0,0(v0)
9d0037bc:	8fc20020 	lw	v0,32(s8)
9d0037c0:	8c420000 	lw	v0,0(v0)
9d0037c4:	00402021 	move	a0,v0
9d0037c8:	00402821 	move	a1,v0
9d0037cc:	0f401af4 	jal	9d006bd0 <__addsf3>
9d0037d0:	00000000 	nop
9d0037d4:	00408821 	move	s1,v0
9d0037d8:	8fc20020 	lw	v0,32(s8)
9d0037dc:	24420008 	addiu	v0,v0,8
9d0037e0:	8c420000 	lw	v0,0(v0)
9d0037e4:	00402021 	move	a0,v0
9d0037e8:	00402821 	move	a1,v0
9d0037ec:	0f401af4 	jal	9d006bd0 <__addsf3>
9d0037f0:	00000000 	nop
9d0037f4:	00402021 	move	a0,v0
9d0037f8:	8fc50030 	lw	a1,48(s8)
9d0037fc:	0f401c9d 	jal	9d007274 <__mulsf3>
9d003800:	00000000 	nop
9d003804:	02202021 	move	a0,s1
9d003808:	00402821 	move	a1,v0
9d00380c:	0f401af2 	jal	9d006bc8 <__subsf3>
9d003810:	00000000 	nop
9d003814:	ae020000 	sw	v0,0(s0)
	jacobian[2][1] = 0;
9d003818:	8fc20024 	lw	v0,36(s8)
9d00381c:	24420008 	addiu	v0,v0,8
9d003820:	8c420000 	lw	v0,0(v0)
9d003824:	24420004 	addiu	v0,v0,4
9d003828:	00001821 	move	v1,zero
9d00382c:	ac430000 	sw	v1,0(v0)
	jacobian[2][2] = 2*x[2] - 2*x[0]*cAC;
9d003830:	8fc20024 	lw	v0,36(s8)
9d003834:	24420008 	addiu	v0,v0,8
9d003838:	8c420000 	lw	v0,0(v0)
9d00383c:	24500008 	addiu	s0,v0,8
9d003840:	8fc20020 	lw	v0,32(s8)
9d003844:	24420008 	addiu	v0,v0,8
9d003848:	8c420000 	lw	v0,0(v0)
9d00384c:	00402021 	move	a0,v0
9d003850:	00402821 	move	a1,v0
9d003854:	0f401af4 	jal	9d006bd0 <__addsf3>
9d003858:	00000000 	nop
9d00385c:	00408821 	move	s1,v0
9d003860:	8fc20020 	lw	v0,32(s8)
9d003864:	8c420000 	lw	v0,0(v0)
9d003868:	00402021 	move	a0,v0
9d00386c:	00402821 	move	a1,v0
9d003870:	0f401af4 	jal	9d006bd0 <__addsf3>
9d003874:	00000000 	nop
9d003878:	00402021 	move	a0,v0
9d00387c:	8fc50030 	lw	a1,48(s8)
9d003880:	0f401c9d 	jal	9d007274 <__mulsf3>
9d003884:	00000000 	nop
9d003888:	02202021 	move	a0,s1
9d00388c:	00402821 	move	a1,v0
9d003890:	0f401af2 	jal	9d006bc8 <__subsf3>
9d003894:	00000000 	nop
9d003898:	ae020000 	sw	v0,0(s0)
}
9d00389c:	03c0e821 	move	sp,s8
9d0038a0:	8fbf001c 	lw	ra,28(sp)
9d0038a4:	8fbe0018 	lw	s8,24(sp)
9d0038a8:	8fb10014 	lw	s1,20(sp)
9d0038ac:	8fb00010 	lw	s0,16(sp)
9d0038b0:	27bd0020 	addiu	sp,sp,32
9d0038b4:	03e00008 	jr	ra
9d0038b8:	00000000 	nop

9d0038bc <newtonOpt>:

// Newton-Raphson root finding routine
void newtonOpt(float* x, int* maxiter, float* eqs, float **jacobian, float AB, float BC, float AC, float cAB, float cBC, float cAC) {
9d0038bc:	27bdffb8 	addiu	sp,sp,-72
9d0038c0:	afbf0044 	sw	ra,68(sp)
9d0038c4:	afbe0040 	sw	s8,64(sp)
9d0038c8:	afb0003c 	sw	s0,60(sp)
9d0038cc:	03a0f021 	move	s8,sp
9d0038d0:	afc40048 	sw	a0,72(s8)
9d0038d4:	afc5004c 	sw	a1,76(s8)
9d0038d8:	afc60050 	sw	a2,80(s8)
9d0038dc:	afc70054 	sw	a3,84(s8)
	float xdel[3];
	float tmp;

	int k;
	for (k = 0; k < *maxiter; k++)
9d0038e0:	afc00024 	sw	zero,36(s8)
9d0038e4:	0b400e8e 	j	9d003a38 <newtonOpt+0x17c>
9d0038e8:	00000000 	nop
	{
		f(x, eqs, AB, BC, AC, cAB, cBC, cAC);						// update function values (eqs) for current value of 'x'
9d0038ec:	8fc20060 	lw	v0,96(s8)
9d0038f0:	afa20010 	sw	v0,16(sp)
9d0038f4:	8fc20064 	lw	v0,100(s8)
9d0038f8:	afa20014 	sw	v0,20(sp)
9d0038fc:	8fc20068 	lw	v0,104(s8)
9d003900:	afa20018 	sw	v0,24(sp)
9d003904:	8fc2006c 	lw	v0,108(s8)
9d003908:	afa2001c 	sw	v0,28(sp)
9d00390c:	8fc40048 	lw	a0,72(s8)
9d003910:	8fc50050 	lw	a1,80(s8)
9d003914:	8fc60058 	lw	a2,88(s8)
9d003918:	8fc7005c 	lw	a3,92(s8)
9d00391c:	0f400ca8 	jal	9d0032a0 <f>
9d003920:	00000000 	nop
		jac(x, jacobian,cAB, cBC, cAC);				// update Jacobian matrix
9d003924:	8fc2006c 	lw	v0,108(s8)
9d003928:	afa20010 	sw	v0,16(sp)
9d00392c:	8fc40048 	lw	a0,72(s8)
9d003930:	8fc50054 	lw	a1,84(s8)
9d003934:	8fc60064 	lw	a2,100(s8)
9d003938:	8fc70068 	lw	a3,104(s8)
9d00393c:	0f400d6d 	jal	9d0035b4 <jac>
9d003940:	00000000 	nop
		gelim(jacobian, eqs, xdel, 3);	// store solution of J*xdel=fval (like Ax=b)
9d003944:	27c2002c 	addiu	v0,s8,44
9d003948:	8fc40054 	lw	a0,84(s8)
9d00394c:	8fc50050 	lw	a1,80(s8)
9d003950:	00403021 	move	a2,v0
9d003954:	24070003 	li	a3,3
9d003958:	0f400b6b 	jal	9d002dac <gelim>
9d00395c:	00000000 	nop

		// update x and check for convergence
		tmp = 0.0;
9d003960:	00001021 	move	v0,zero
9d003964:	afc20020 	sw	v0,32(s8)
		int i;
		for (i = 0; i < 3; i++)
9d003968:	afc00028 	sw	zero,40(s8)
9d00396c:	0b400e7e 	j	9d0039f8 <newtonOpt+0x13c>
9d003970:	00000000 	nop
		{
			tmp += fabs(xdel[i]);
9d003974:	8fc20028 	lw	v0,40(s8)
9d003978:	00021080 	sll	v0,v0,0x2
9d00397c:	27c30020 	addiu	v1,s8,32
9d003980:	00621021 	addu	v0,v1,v0
9d003984:	8c42000c 	lw	v0,12(v0)
9d003988:	7c42f000 	ext	v0,v0,0x0,0x1f
9d00398c:	8fc40020 	lw	a0,32(s8)
9d003990:	00402821 	move	a1,v0
9d003994:	0f401af4 	jal	9d006bd0 <__addsf3>
9d003998:	00000000 	nop
9d00399c:	afc20020 	sw	v0,32(s8)
			x[i] = x[i] - xdel[i];
9d0039a0:	8fc20028 	lw	v0,40(s8)
9d0039a4:	00021080 	sll	v0,v0,0x2
9d0039a8:	8fc30048 	lw	v1,72(s8)
9d0039ac:	00628021 	addu	s0,v1,v0
9d0039b0:	8fc20028 	lw	v0,40(s8)
9d0039b4:	00021080 	sll	v0,v0,0x2
9d0039b8:	8fc30048 	lw	v1,72(s8)
9d0039bc:	00621021 	addu	v0,v1,v0
9d0039c0:	8c430000 	lw	v1,0(v0)
9d0039c4:	8fc20028 	lw	v0,40(s8)
9d0039c8:	00021080 	sll	v0,v0,0x2
9d0039cc:	27c40020 	addiu	a0,s8,32
9d0039d0:	00821021 	addu	v0,a0,v0
9d0039d4:	8c42000c 	lw	v0,12(v0)
9d0039d8:	00602021 	move	a0,v1
9d0039dc:	00402821 	move	a1,v0
9d0039e0:	0f401af2 	jal	9d006bc8 <__subsf3>
9d0039e4:	00000000 	nop
9d0039e8:	ae020000 	sw	v0,0(s0)
		gelim(jacobian, eqs, xdel, 3);	// store solution of J*xdel=fval (like Ax=b)

		// update x and check for convergence
		tmp = 0.0;
		int i;
		for (i = 0; i < 3; i++)
9d0039ec:	8fc20028 	lw	v0,40(s8)
9d0039f0:	24420001 	addiu	v0,v0,1
9d0039f4:	afc20028 	sw	v0,40(s8)
9d0039f8:	8fc20028 	lw	v0,40(s8)
9d0039fc:	28420003 	slti	v0,v0,3
9d003a00:	1440ffdc 	bnez	v0,9d003974 <newtonOpt+0xb8>
9d003a04:	00000000 	nop
		{
			tmp += fabs(xdel[i]);
			x[i] = x[i] - xdel[i];
		}
		if (tmp < 1e-3) break;
9d003a08:	3c029d01 	lui	v0,0x9d01
9d003a0c:	8fc40020 	lw	a0,32(s8)
9d003a10:	8c4590b8 	lw	a1,-28488(v0)
9d003a14:	0f40217a 	jal	9d0085e8 <__eqsf2>
9d003a18:	00000000 	nop
9d003a1c:	04410003 	bgez	v0,9d003a2c <newtonOpt+0x170>
9d003a20:	00000000 	nop
9d003a24:	0b400e94 	j	9d003a50 <newtonOpt+0x194>
9d003a28:	00000000 	nop
void newtonOpt(float* x, int* maxiter, float* eqs, float **jacobian, float AB, float BC, float AC, float cAB, float cBC, float cAC) {
	float xdel[3];
	float tmp;

	int k;
	for (k = 0; k < *maxiter; k++)
9d003a2c:	8fc20024 	lw	v0,36(s8)
9d003a30:	24420001 	addiu	v0,v0,1
9d003a34:	afc20024 	sw	v0,36(s8)
9d003a38:	8fc2004c 	lw	v0,76(s8)
9d003a3c:	8c430000 	lw	v1,0(v0)
9d003a40:	8fc20024 	lw	v0,36(s8)
9d003a44:	0043102a 	slt	v0,v0,v1
9d003a48:	1440ffa8 	bnez	v0,9d0038ec <newtonOpt+0x30>
9d003a4c:	00000000 	nop
			tmp += fabs(xdel[i]);
			x[i] = x[i] - xdel[i];
		}
		if (tmp < 1e-3) break;
	}
	*maxiter = k;	// store the number of iterations it took
9d003a50:	8fc2004c 	lw	v0,76(s8)
9d003a54:	8fc30024 	lw	v1,36(s8)
9d003a58:	ac430000 	sw	v1,0(v0)
9d003a5c:	03c0e821 	move	sp,s8
9d003a60:	8fbf0044 	lw	ra,68(sp)
9d003a64:	8fbe0040 	lw	s8,64(sp)
9d003a68:	8fb0003c 	lw	s0,60(sp)
9d003a6c:	27bd0048 	addiu	sp,sp,72
9d003a70:	03e00008 	jr	ra
9d003a74:	00000000 	nop

Disassembly of section .text._do_print_fF:

9d003a78 <_do_print_fF>:
9d003a78:	27bdff60 	addiu	sp,sp,-160
9d003a7c:	afbf009c 	sw	ra,156(sp)
9d003a80:	afbe0098 	sw	s8,152(sp)
9d003a84:	afb70094 	sw	s7,148(sp)
9d003a88:	afb60090 	sw	s6,144(sp)
9d003a8c:	afb5008c 	sw	s5,140(sp)
9d003a90:	afb40088 	sw	s4,136(sp)
9d003a94:	afb30084 	sw	s3,132(sp)
9d003a98:	afb20080 	sw	s2,128(sp)
9d003a9c:	afb1007c 	sw	s1,124(sp)
9d003aa0:	afb00078 	sw	s0,120(sp)
9d003aa4:	00809021 	move	s2,a0
9d003aa8:	8c820018 	lw	v0,24(a0)
9d003aac:	00a0f021 	move	s8,a1
9d003ab0:	24050001 	li	a1,1
9d003ab4:	8c420010 	lw	v0,16(v0)
9d003ab8:	0040f809 	jalr	v0
9d003abc:	00c08821 	move	s1,a2
9d003ac0:	10400188 	beqz	v0,9d0040e4 <_do_print_fF+0x66c>
9d003ac4:	00008021 	move	s0,zero
9d003ac8:	83c40000 	lb	a0,0(s8)
9d003acc:	1080000b 	beqz	a0,9d003afc <_do_print_fF+0x84>
9d003ad0:	27d40001 	addiu	s4,s8,1
9d003ad4:	24020025 	li	v0,37
9d003ad8:	50820019 	beql	a0,v0,9d003b40 <_do_print_fF+0xc8>
9d003adc:	83c20001 	lb	v0,1(s8)
9d003ae0:	0f402125 	jal	9d008494 <fputc>
9d003ae4:	02402821 	move	a1,s2
9d003ae8:	26100001 	addiu	s0,s0,1
9d003aec:	0280f021 	move	s8,s4
9d003af0:	83c40000 	lb	a0,0(s8)
9d003af4:	1480fff7 	bnez	a0,9d003ad4 <_do_print_fF+0x5c>
9d003af8:	27d40001 	addiu	s4,s8,1
9d003afc:	96420010 	lhu	v0,16(s2)
9d003b00:	30420040 	andi	v0,v0,0x40
9d003b04:	14400178 	bnez	v0,9d0040e8 <_do_print_fF+0x670>
9d003b08:	2402ffff 	li	v0,-1
9d003b0c:	02001021 	move	v0,s0
9d003b10:	8fbf009c 	lw	ra,156(sp)
9d003b14:	8fbe0098 	lw	s8,152(sp)
9d003b18:	8fb70094 	lw	s7,148(sp)
9d003b1c:	8fb60090 	lw	s6,144(sp)
9d003b20:	8fb5008c 	lw	s5,140(sp)
9d003b24:	8fb40088 	lw	s4,136(sp)
9d003b28:	8fb30084 	lw	s3,132(sp)
9d003b2c:	8fb20080 	lw	s2,128(sp)
9d003b30:	8fb1007c 	lw	s1,124(sp)
9d003b34:	8fb00078 	lw	s0,120(sp)
9d003b38:	03e00008 	jr	ra
9d003b3c:	27bd00a0 	addiu	sp,sp,160
9d003b40:	1044015e 	beq	v0,a0,9d0040bc <_do_print_fF+0x644>
9d003b44:	00009821 	move	s3,zero
9d003b48:	2403002d 	li	v1,45
9d003b4c:	2404002b 	li	a0,43
9d003b50:	24050020 	li	a1,32
9d003b54:	24060023 	li	a2,35
9d003b58:	1043000e 	beq	v0,v1,9d003b94 <_do_print_fF+0x11c>
9d003b5c:	24070030 	li	a3,48
9d003b60:	50440010 	beql	v0,a0,9d003ba4 <_do_print_fF+0x12c>
9d003b64:	36730002 	ori	s3,s3,0x2
9d003b68:	50450011 	beql	v0,a1,9d003bb0 <_do_print_fF+0x138>
9d003b6c:	36730001 	ori	s3,s3,0x1
9d003b70:	50460012 	beql	v0,a2,9d003bbc <_do_print_fF+0x144>
9d003b74:	36730800 	ori	s3,s3,0x800
9d003b78:	54470013 	bnel	v0,a3,9d003bc8 <_do_print_fF+0x150>
9d003b7c:	2403002a 	li	v1,42
9d003b80:	36730004 	ori	s3,s3,0x4
9d003b84:	26940001 	addiu	s4,s4,1
9d003b88:	82820000 	lb	v0,0(s4)
9d003b8c:	1443fff4 	bne	v0,v1,9d003b60 <_do_print_fF+0xe8>
9d003b90:	00000000 	nop
9d003b94:	36730008 	ori	s3,s3,0x8
9d003b98:	26940001 	addiu	s4,s4,1
9d003b9c:	0b400ee3 	j	9d003b8c <_do_print_fF+0x114>
9d003ba0:	82820000 	lb	v0,0(s4)
9d003ba4:	26940001 	addiu	s4,s4,1
9d003ba8:	0b400ee3 	j	9d003b8c <_do_print_fF+0x114>
9d003bac:	82820000 	lb	v0,0(s4)
9d003bb0:	26940001 	addiu	s4,s4,1
9d003bb4:	0b400ee3 	j	9d003b8c <_do_print_fF+0x114>
9d003bb8:	82820000 	lb	v0,0(s4)
9d003bbc:	26940001 	addiu	s4,s4,1
9d003bc0:	0b400ee3 	j	9d003b8c <_do_print_fF+0x114>
9d003bc4:	82820000 	lb	v0,0(s4)
9d003bc8:	10430124 	beq	v0,v1,9d00405c <_do_print_fF+0x5e4>
9d003bcc:	02802021 	move	a0,s4
9d003bd0:	2443ffd0 	addiu	v1,v0,-48
9d003bd4:	2c63000a 	sltiu	v1,v1,10
9d003bd8:	1060000b 	beqz	v1,9d003c08 <_do_print_fF+0x190>
9d003bdc:	0000b021 	move	s6,zero
9d003be0:	00161840 	sll	v1,s6,0x1
9d003be4:	001640c0 	sll	t0,s6,0x3
9d003be8:	00684021 	addu	t0,v1,t0
9d003bec:	26940001 	addiu	s4,s4,1
9d003bf0:	01024021 	addu	t0,t0,v0
9d003bf4:	82820000 	lb	v0,0(s4)
9d003bf8:	2443ffd0 	addiu	v1,v0,-48
9d003bfc:	2c63000a 	sltiu	v1,v1,10
9d003c00:	1460fff7 	bnez	v1,9d003be0 <_do_print_fF+0x168>
9d003c04:	2516ffd0 	addiu	s6,t0,-48
9d003c08:	2403002e 	li	v1,46
9d003c0c:	104300ff 	beq	v0,v1,9d00400c <_do_print_fF+0x594>
9d003c10:	2417ffff 	li	s7,-1
9d003c14:	24030068 	li	v1,104
9d003c18:	104300e9 	beq	v0,v1,9d003fc0 <_do_print_fF+0x548>
9d003c1c:	2403006c 	li	v1,108
9d003c20:	10430116 	beq	v0,v1,9d00407c <_do_print_fF+0x604>
9d003c24:	24030071 	li	v1,113
9d003c28:	1043012a 	beq	v0,v1,9d0040d4 <_do_print_fF+0x65c>
9d003c2c:	2403004c 	li	v1,76
9d003c30:	50430160 	beql	v0,v1,9d0041b4 <_do_print_fF+0x73c>
9d003c34:	82820001 	lb	v0,1(s4)
9d003c38:	32640002 	andi	a0,s3,0x2
9d003c3c:	3263fffe 	andi	v1,s3,0xfffe
9d003c40:	0064980b 	movn	s3,v1,a0
9d003c44:	2442ffbc 	addiu	v0,v0,-68
9d003c48:	32650008 	andi	a1,s3,0x8
9d003c4c:	3264fffb 	andi	a0,s3,0xfffb
9d003c50:	2c430032 	sltiu	v1,v0,50
9d003c54:	269e0001 	addiu	s8,s4,1
9d003c58:	106000e9 	beqz	v1,9d004000 <_do_print_fF+0x588>
9d003c5c:	0085980b 	movn	s3,a0,a1
9d003c60:	00021080 	sll	v0,v0,0x2
9d003c64:	3c039d00 	lui	v1,0x9d00
9d003c68:	24633c7c 	addiu	v1,v1,15484
9d003c6c:	00621021 	addu	v0,v1,v0
9d003c70:	8c420000 	lw	v0,0(v0)
9d003c74:	00400008 	jr	v0
9d003c78:	00000000 	nop
9d003c7c:	9d003d44 	0x9d003d44
9d003c80:	9d004000 	0x9d004000
9d003c84:	9d004000 	0x9d004000
9d003c88:	9d004000 	0x9d004000
9d003c8c:	9d004000 	0x9d004000
9d003c90:	9d004000 	0x9d004000
9d003c94:	9d004000 	0x9d004000
9d003c98:	9d004000 	0x9d004000
9d003c9c:	9d004000 	0x9d004000
9d003ca0:	9d004000 	0x9d004000
9d003ca4:	9d004000 	0x9d004000
9d003ca8:	9d004000 	0x9d004000
9d003cac:	9d004000 	0x9d004000
9d003cb0:	9d004000 	0x9d004000
9d003cb4:	9d004000 	0x9d004000
9d003cb8:	9d004000 	0x9d004000
9d003cbc:	9d004000 	0x9d004000
9d003cc0:	9d003d48 	0x9d003d48
9d003cc4:	9d004000 	0x9d004000
9d003cc8:	9d004000 	0x9d004000
9d003ccc:	9d004000 	0x9d004000
9d003cd0:	9d004000 	0x9d004000
9d003cd4:	9d004000 	0x9d004000
9d003cd8:	9d004000 	0x9d004000
9d003cdc:	9d004000 	0x9d004000
9d003ce0:	9d004000 	0x9d004000
9d003ce4:	9d004000 	0x9d004000
9d003ce8:	9d004000 	0x9d004000
9d003cec:	9d004000 	0x9d004000
9d003cf0:	9d004000 	0x9d004000
9d003cf4:	9d004000 	0x9d004000
9d003cf8:	9d003ecc 	0x9d003ecc
9d003cfc:	9d004000 	0x9d004000
9d003d00:	9d004000 	0x9d004000
9d003d04:	9d003f8c 	0x9d003f8c
9d003d08:	9d004000 	0x9d004000
9d003d0c:	9d004000 	0x9d004000
9d003d10:	9d004000 	0x9d004000
9d003d14:	9d004000 	0x9d004000
9d003d18:	9d004000 	0x9d004000
9d003d1c:	9d004000 	0x9d004000
9d003d20:	9d004000 	0x9d004000
9d003d24:	9d003f60 	0x9d003f60
9d003d28:	9d004000 	0x9d004000
9d003d2c:	9d004000 	0x9d004000
9d003d30:	9d004000 	0x9d004000
9d003d34:	9d004000 	0x9d004000
9d003d38:	9d003ef8 	0x9d003ef8
9d003d3c:	9d004000 	0x9d004000
9d003d40:	9d003d4c 	0x9d003d4c
9d003d44:	36730010 	ori	s3,s3,0x10
9d003d48:	36730010 	ori	s3,s3,0x10
9d003d4c:	2402ffff 	li	v0,-1
9d003d50:	52e2011a 	beql	s7,v0,9d0041bc <_do_print_fF+0x744>
9d003d54:	3273f7ff 	andi	s3,s3,0xf7ff
9d003d58:	3273f7fb 	andi	s3,s3,0xf7fb
9d003d5c:	afb30060 	sw	s3,96(sp)
9d003d60:	26e5ffff 	addiu	a1,s7,-1
9d003d64:	8fa40060 	lw	a0,96(sp)
9d003d68:	308400c0 	andi	a0,a0,0xc0
9d003d6c:	108000ca 	beqz	a0,9d004098 <_do_print_fF+0x620>
9d003d70:	afa40064 	sw	a0,100(sp)
9d003d74:	8fa30060 	lw	v1,96(sp)
9d003d78:	7c031620 	seh	v0,v1
9d003d7c:	04420137 	bltzl	v0,9d00425c <_do_print_fF+0x7e4>
9d003d80:	26310007 	addiu	s1,s1,7
9d003d84:	8e350000 	lw	s5,0(s1)
9d003d88:	26310004 	addiu	s1,s1,4
9d003d8c:	0015a7c3 	sra	s4,s5,0x1f
9d003d90:	02801021 	move	v0,s4
9d003d94:	044000e9 	bltz	v0,9d00413c <_do_print_fF+0x6c4>
9d003d98:	02a01821 	move	v1,s5
9d003d9c:	afa0006c 	sw	zero,108(sp)
9d003da0:	128000ee 	beqz	s4,9d00415c <_do_print_fF+0x6e4>
9d003da4:	00000000 	nop
9d003da8:	27a30057 	addiu	v1,sp,87
9d003dac:	afa30068 	sw	v1,104(sp)
9d003db0:	02b41025 	or	v0,s5,s4
9d003db4:	10400014 	beqz	v0,9d003e08 <_do_print_fF+0x390>
9d003db8:	00609821 	move	s3,v1
9d003dbc:	02a02021 	move	a0,s5
9d003dc0:	02802821 	move	a1,s4
9d003dc4:	2406000a 	li	a2,10
9d003dc8:	0f4015c6 	jal	9d005718 <__umoddi3>
9d003dcc:	00003821 	move	a3,zero
9d003dd0:	24420030 	addiu	v0,v0,48
9d003dd4:	2673ffff 	addiu	s3,s3,-1
9d003dd8:	02a02021 	move	a0,s5
9d003ddc:	02802821 	move	a1,s4
9d003de0:	a2620001 	sb	v0,1(s3)
9d003de4:	2406000a 	li	a2,10
9d003de8:	0f4016df 	jal	9d005b7c <__udivdi3>
9d003dec:	00003821 	move	a3,zero
9d003df0:	00622025 	or	a0,v1,v0
9d003df4:	0040a821 	move	s5,v0
9d003df8:	0060a021 	move	s4,v1
9d003dfc:	1480ffef 	bnez	a0,9d003dbc <_do_print_fF+0x344>
9d003e00:	26f7ffff 	addiu	s7,s7,-1
9d003e04:	26e5ffff 	addiu	a1,s7,-1
9d003e08:	04a0000a 	bltz	a1,9d003e34 <_do_print_fF+0x3bc>
9d003e0c:	2664ffff 	addiu	a0,s3,-1
9d003e10:	02601021 	move	v0,s3
9d003e14:	00852023 	subu	a0,a0,a1
9d003e18:	24030030 	li	v1,48
9d003e1c:	a0430000 	sb	v1,0(v0)
9d003e20:	2442ffff 	addiu	v0,v0,-1
9d003e24:	5444fffe 	bnel	v0,a0,9d003e20 <_do_print_fF+0x3a8>
9d003e28:	a0430000 	sb	v1,0(v0)
9d003e2c:	00052827 	nor	a1,zero,a1
9d003e30:	02659821 	addu	s3,s3,a1
9d003e34:	8fa40060 	lw	a0,96(sp)
9d003e38:	30820004 	andi	v0,a0,0x4
9d003e3c:	10400010 	beqz	v0,9d003e80 <_do_print_fF+0x408>
9d003e40:	8fa20064 	lw	v0,100(sp)
9d003e44:	8fa20068 	lw	v0,104(sp)
9d003e48:	02621823 	subu	v1,s3,v0
9d003e4c:	8fa40064 	lw	a0,100(sp)
9d003e50:	148000b1 	bnez	a0,9d004118 <_do_print_fF+0x6a0>
9d003e54:	02c31821 	addu	v1,s6,v1
9d003e58:	18600008 	blez	v1,9d003e7c <_do_print_fF+0x404>
9d003e5c:	02601021 	move	v0,s3
9d003e60:	02635023 	subu	t2,s3,v1
9d003e64:	24030030 	li	v1,48
9d003e68:	a0430000 	sb	v1,0(v0)
9d003e6c:	2442ffff 	addiu	v0,v0,-1
9d003e70:	5542fffe 	bnel	t2,v0,9d003e6c <_do_print_fF+0x3f4>
9d003e74:	a0430000 	sb	v1,0(v0)
9d003e78:	01409821 	move	s3,t2
9d003e7c:	8fa20064 	lw	v0,100(sp)
9d003e80:	10400008 	beqz	v0,9d003ea4 <_do_print_fF+0x42c>
9d003e84:	8fa3006c 	lw	v1,108(sp)
9d003e88:	146000d0 	bnez	v1,9d0041cc <_do_print_fF+0x754>
9d003e8c:	8fa40060 	lw	a0,96(sp)
9d003e90:	30820002 	andi	v0,a0,0x2
9d003e94:	10400003 	beqz	v0,9d003ea4 <_do_print_fF+0x42c>
9d003e98:	2402002b 	li	v0,43
9d003e9c:	a2620000 	sb	v0,0(s3)
9d003ea0:	2673ffff 	addiu	s3,s3,-1
9d003ea4:	26650001 	addiu	a1,s3,1
9d003ea8:	8fa20060 	lw	v0,96(sp)
9d003eac:	afa20010 	sw	v0,16(sp)
9d003eb0:	02402021 	move	a0,s2
9d003eb4:	27a60058 	addiu	a2,sp,88
9d003eb8:	00c53023 	subu	a2,a2,a1
9d003ebc:	0f401dc3 	jal	9d00770c <.LFE0>
9d003ec0:	02c03821 	move	a3,s6
9d003ec4:	0b400eb2 	j	9d003ac8 <_do_print_fF+0x50>
9d003ec8:	02028021 	addu	s0,s0,v0
9d003ecc:	8e220000 	lw	v0,0(s1)
9d003ed0:	26310004 	addiu	s1,s1,4
9d003ed4:	afb30010 	sw	s3,16(sp)
9d003ed8:	02402021 	move	a0,s2
9d003edc:	27a50018 	addiu	a1,sp,24
9d003ee0:	24060001 	li	a2,1
9d003ee4:	02c03821 	move	a3,s6
9d003ee8:	0f401dc3 	jal	9d00770c <.LFE0>
9d003eec:	a3a20018 	sb	v0,24(sp)
9d003ef0:	0b400eb2 	j	9d003ac8 <_do_print_fF+0x50>
9d003ef4:	02028021 	addu	s0,s0,v0
9d003ef8:	8e250000 	lw	a1,0(s1)
9d003efc:	3c039d01 	lui	v1,0x9d01
9d003f00:	24628c38 	addiu	v0,v1,-29640
9d003f04:	0045280a 	movz	a1,v0,a1
9d003f08:	2402ffff 	li	v0,-1
9d003f0c:	12e200ee 	beq	s7,v0,9d0042c8 <_do_print_fF+0x850>
9d003f10:	26310004 	addiu	s1,s1,4
9d003f14:	1ae000fa 	blez	s7,9d004300 <_do_print_fF+0x888>
9d003f18:	00b74821 	addu	t1,a1,s7
9d003f1c:	80a30000 	lb	v1,0(a1)
9d003f20:	14600005 	bnez	v1,9d003f38 <_do_print_fF+0x4c0>
9d003f24:	00a01021 	move	v0,a1
9d003f28:	0b400fd2 	j	9d003f48 <_do_print_fF+0x4d0>
9d003f2c:	00003021 	move	a2,zero
9d003f30:	10600005 	beqz	v1,9d003f48 <_do_print_fF+0x4d0>
9d003f34:	00453023 	subu	a2,v0,a1
9d003f38:	24420001 	addiu	v0,v0,1
9d003f3c:	5449fffc 	bnel	v0,t1,9d003f30 <_do_print_fF+0x4b8>
9d003f40:	80430000 	lb	v1,0(v0)
9d003f44:	00453023 	subu	a2,v0,a1
9d003f48:	afb30010 	sw	s3,16(sp)
9d003f4c:	02402021 	move	a0,s2
9d003f50:	0f401dc3 	jal	9d00770c <.LFE0>
9d003f54:	02c03821 	move	a3,s6
9d003f58:	0b400eb2 	j	9d003ac8 <_do_print_fF+0x50>
9d003f5c:	02028021 	addu	s0,s0,v0
9d003f60:	7c131620 	seh	v0,s3
9d003f64:	044000d0 	bltz	v0,9d0042a8 <_do_print_fF+0x830>
9d003f68:	32620010 	andi	v0,s3,0x10
9d003f6c:	104000c5 	beqz	v0,9d004284 <_do_print_fF+0x80c>
9d003f70:	32620040 	andi	v0,s3,0x40
9d003f74:	8e230000 	lw	v1,0(s1)
9d003f78:	00001021 	move	v0,zero
9d003f7c:	26310004 	addiu	s1,s1,4
9d003f80:	ac700000 	sw	s0,0(v1)
9d003f84:	0b400eb2 	j	9d003ac8 <_do_print_fF+0x50>
9d003f88:	02028021 	addu	s0,s0,v0
9d003f8c:	8e220000 	lw	v0,0(s1)
9d003f90:	36730400 	ori	s3,s3,0x400
9d003f94:	26310004 	addiu	s1,s1,4
9d003f98:	afa20058 	sw	v0,88(sp)
9d003f9c:	8fa50058 	lw	a1,88(sp)
9d003fa0:	afb70010 	sw	s7,16(sp)
9d003fa4:	afb30014 	sw	s3,20(sp)
9d003fa8:	02402021 	move	a0,s2
9d003fac:	24060066 	li	a2,102
9d003fb0:	0f401472 	jal	9d0051c8 <_fconvert>
9d003fb4:	02c03821 	move	a3,s6
9d003fb8:	0b400eb2 	j	9d003ac8 <_do_print_fF+0x50>
9d003fbc:	02028021 	addu	s0,s0,v0
9d003fc0:	82830001 	lb	v1,1(s4)
9d003fc4:	50620096 	beql	v1,v0,9d004220 <_do_print_fF+0x7a8>
9d003fc8:	82820002 	lb	v0,2(s4)
9d003fcc:	36730040 	ori	s3,s3,0x40
9d003fd0:	00601021 	move	v0,v1
9d003fd4:	26940001 	addiu	s4,s4,1
9d003fd8:	32640002 	andi	a0,s3,0x2
9d003fdc:	3263fffe 	andi	v1,s3,0xfffe
9d003fe0:	0064980b 	movn	s3,v1,a0
9d003fe4:	2442ffbc 	addiu	v0,v0,-68
9d003fe8:	32650008 	andi	a1,s3,0x8
9d003fec:	3264fffb 	andi	a0,s3,0xfffb
9d003ff0:	2c430032 	sltiu	v1,v0,50
9d003ff4:	269e0001 	addiu	s8,s4,1
9d003ff8:	1460ff19 	bnez	v1,9d003c60 <_do_print_fF+0x1e8>
9d003ffc:	0085980b 	movn	s3,a0,a1
9d004000:	00001021 	move	v0,zero
9d004004:	0b400eb2 	j	9d003ac8 <_do_print_fF+0x50>
9d004008:	02028021 	addu	s0,s0,v0
9d00400c:	82820001 	lb	v0,1(s4)
9d004010:	2403002a 	li	v1,42
9d004014:	1043007a 	beq	v0,v1,9d004200 <_do_print_fF+0x788>
9d004018:	2443ffd0 	addiu	v1,v0,-48
9d00401c:	2c63000a 	sltiu	v1,v1,10
9d004020:	26940001 	addiu	s4,s4,1
9d004024:	1060fefb 	beqz	v1,9d003c14 <_do_print_fF+0x19c>
9d004028:	0000b821 	move	s7,zero
9d00402c:	00171840 	sll	v1,s7,0x1
9d004030:	001748c0 	sll	t1,s7,0x3
9d004034:	00694821 	addu	t1,v1,t1
9d004038:	26940001 	addiu	s4,s4,1
9d00403c:	01224821 	addu	t1,t1,v0
9d004040:	82820000 	lb	v0,0(s4)
9d004044:	2443ffd0 	addiu	v1,v0,-48
9d004048:	2c63000a 	sltiu	v1,v1,10
9d00404c:	1460fff7 	bnez	v1,9d00402c <_do_print_fF+0x5b4>
9d004050:	2537ffd0 	addiu	s7,t1,-48
9d004054:	0b400f06 	j	9d003c18 <_do_print_fF+0x1a0>
9d004058:	24030068 	li	v1,104
9d00405c:	8e360000 	lw	s6,0(s1)
9d004060:	26310004 	addiu	s1,s1,4
9d004064:	26940001 	addiu	s4,s4,1
9d004068:	06c1fee7 	bgez	s6,9d003c08 <_do_print_fF+0x190>
9d00406c:	80820001 	lb	v0,1(a0)
9d004070:	36730008 	ori	s3,s3,0x8
9d004074:	0b400f02 	j	9d003c08 <_do_print_fF+0x190>
9d004078:	0016b023 	negu	s6,s6
9d00407c:	82830001 	lb	v1,1(s4)
9d004080:	5062006b 	beql	v1,v0,9d004230 <_do_print_fF+0x7b8>
9d004084:	82820002 	lb	v0,2(s4)
9d004088:	36730010 	ori	s3,s3,0x10
9d00408c:	00601021 	move	v0,v1
9d004090:	0b400ff6 	j	9d003fd8 <_do_print_fF+0x560>
9d004094:	26940001 	addiu	s4,s4,1
9d004098:	8fa40060 	lw	a0,96(sp)
9d00409c:	7c041620 	seh	v0,a0
9d0040a0:	04420067 	bltzl	v0,9d004240 <_do_print_fF+0x7c8>
9d0040a4:	26310007 	addiu	s1,s1,7
9d0040a8:	8e350000 	lw	s5,0(s1)
9d0040ac:	0000a021 	move	s4,zero
9d0040b0:	26310004 	addiu	s1,s1,4
9d0040b4:	0b400f68 	j	9d003da0 <_do_print_fF+0x328>
9d0040b8:	afa0006c 	sw	zero,108(sp)
9d0040bc:	24040025 	li	a0,37
9d0040c0:	0f402125 	jal	9d008494 <fputc>
9d0040c4:	02402821 	move	a1,s2
9d0040c8:	27de0002 	addiu	s8,s8,2
9d0040cc:	0b400eb2 	j	9d003ac8 <_do_print_fF+0x50>
9d0040d0:	26100001 	addiu	s0,s0,1
9d0040d4:	82820001 	lb	v0,1(s4)
9d0040d8:	36738000 	ori	s3,s3,0x8000
9d0040dc:	0b400f0e 	j	9d003c38 <_do_print_fF+0x1c0>
9d0040e0:	26940001 	addiu	s4,s4,1
9d0040e4:	2402ffff 	li	v0,-1
9d0040e8:	8fbf009c 	lw	ra,156(sp)
9d0040ec:	8fbe0098 	lw	s8,152(sp)
9d0040f0:	8fb70094 	lw	s7,148(sp)
9d0040f4:	8fb60090 	lw	s6,144(sp)
9d0040f8:	8fb5008c 	lw	s5,140(sp)
9d0040fc:	8fb40088 	lw	s4,136(sp)
9d004100:	8fb30084 	lw	s3,132(sp)
9d004104:	8fb20080 	lw	s2,128(sp)
9d004108:	8fb1007c 	lw	s1,124(sp)
9d00410c:	8fb00078 	lw	s0,120(sp)
9d004110:	03e00008 	jr	ra
9d004114:	27bd00a0 	addiu	sp,sp,160
9d004118:	8fa2006c 	lw	v0,108(sp)
9d00411c:	5440ff4e 	bnezl	v0,9d003e58 <_do_print_fF+0x3e0>
9d004120:	2463ffff 	addiu	v1,v1,-1
9d004124:	8fa40060 	lw	a0,96(sp)
9d004128:	30820003 	andi	v0,a0,0x3
9d00412c:	1040ff4a 	beqz	v0,9d003e58 <_do_print_fF+0x3e0>
9d004130:	00000000 	nop
9d004134:	0b400f96 	j	9d003e58 <_do_print_fF+0x3e0>
9d004138:	2463ffff 	addiu	v1,v1,-1
9d00413c:	00031823 	negu	v1,v1
9d004140:	0003202b 	sltu	a0,zero,v1
9d004144:	00021023 	negu	v0,v0
9d004148:	0060a821 	move	s5,v1
9d00414c:	0044a023 	subu	s4,v0,a0
9d004150:	24020001 	li	v0,1
9d004154:	1680ff14 	bnez	s4,9d003da8 <_do_print_fF+0x330>
9d004158:	afa2006c 	sw	v0,108(sp)
9d00415c:	12a0006a 	beqz	s5,9d004308 <_do_print_fF+0x890>
9d004160:	02a06821 	move	t5,s5
9d004164:	27a40057 	addiu	a0,sp,87
9d004168:	afa40068 	sw	a0,104(sp)
9d00416c:	00809821 	move	s3,a0
9d004170:	3c02cccc 	lui	v0,0xcccc
9d004174:	3442cccd 	ori	v0,v0,0xcccd
9d004178:	01a20019 	multu	t5,v0
9d00417c:	00001810 	mfhi	v1
9d004180:	2673ffff 	addiu	s3,s3,-1
9d004184:	26f7ffff 	addiu	s7,s7,-1
9d004188:	000310c2 	srl	v0,v1,0x3
9d00418c:	00022040 	sll	a0,v0,0x1
9d004190:	000210c0 	sll	v0,v0,0x3
9d004194:	00821021 	addu	v0,a0,v0
9d004198:	01a21023 	subu	v0,t5,v0
9d00419c:	24420030 	addiu	v0,v0,48
9d0041a0:	000368c2 	srl	t5,v1,0x3
9d0041a4:	15a0fff2 	bnez	t5,9d004170 <_do_print_fF+0x6f8>
9d0041a8:	a2620001 	sb	v0,1(s3)
9d0041ac:	0b400f82 	j	9d003e08 <_do_print_fF+0x390>
9d0041b0:	26e5ffff 	addiu	a1,s7,-1
9d0041b4:	0b400ff6 	j	9d003fd8 <_do_print_fF+0x560>
9d0041b8:	26940001 	addiu	s4,s4,1
9d0041bc:	afb30060 	sw	s3,96(sp)
9d0041c0:	00002821 	move	a1,zero
9d0041c4:	0b400f59 	j	9d003d64 <_do_print_fF+0x2ec>
9d0041c8:	24170001 	li	s7,1
9d0041cc:	2402002d 	li	v0,45
9d0041d0:	a2620000 	sb	v0,0(s3)
9d0041d4:	2673ffff 	addiu	s3,s3,-1
9d0041d8:	26650001 	addiu	a1,s3,1
9d0041dc:	8fa20060 	lw	v0,96(sp)
9d0041e0:	afa20010 	sw	v0,16(sp)
9d0041e4:	02402021 	move	a0,s2
9d0041e8:	27a60058 	addiu	a2,sp,88
9d0041ec:	00c53023 	subu	a2,a2,a1
9d0041f0:	0f401dc3 	jal	9d00770c <.LFE0>
9d0041f4:	02c03821 	move	a3,s6
9d0041f8:	0b400eb2 	j	9d003ac8 <_do_print_fF+0x50>
9d0041fc:	02028021 	addu	s0,s0,v0
9d004200:	8e370000 	lw	s7,0(s1)
9d004204:	26310004 	addiu	s1,s1,4
9d004208:	26830002 	addiu	v1,s4,2
9d00420c:	82820002 	lb	v0,2(s4)
9d004210:	06e1fe80 	bgez	s7,9d003c14 <_do_print_fF+0x19c>
9d004214:	0060a021 	move	s4,v1
9d004218:	0b400f05 	j	9d003c14 <_do_print_fF+0x19c>
9d00421c:	2417ffff 	li	s7,-1
9d004220:	36730001 	ori	s3,s3,0x1
9d004224:	26940001 	addiu	s4,s4,1
9d004228:	0b400ff6 	j	9d003fd8 <_do_print_fF+0x560>
9d00422c:	26940001 	addiu	s4,s4,1
9d004230:	36738000 	ori	s3,s3,0x8000
9d004234:	26940001 	addiu	s4,s4,1
9d004238:	0b400ff6 	j	9d003fd8 <_do_print_fF+0x560>
9d00423c:	26940001 	addiu	s4,s4,1
9d004240:	2402fff8 	li	v0,-8
9d004244:	02221024 	and	v0,s1,v0
9d004248:	24510008 	addiu	s1,v0,8
9d00424c:	8c550000 	lw	s5,0(v0)
9d004250:	8c540004 	lw	s4,4(v0)
9d004254:	0b400f68 	j	9d003da0 <_do_print_fF+0x328>
9d004258:	afa0006c 	sw	zero,108(sp)
9d00425c:	2402fff8 	li	v0,-8
9d004260:	02228824 	and	s1,s1,v0
9d004264:	8e230000 	lw	v1,0(s1)
9d004268:	8e220004 	lw	v0,4(s1)
9d00426c:	26310008 	addiu	s1,s1,8
9d004270:	0060a821 	move	s5,v1
9d004274:	0441fec9 	bgez	v0,9d003d9c <_do_print_fF+0x324>
9d004278:	0040a021 	move	s4,v0
9d00427c:	0b401050 	j	9d004140 <_do_print_fF+0x6c8>
9d004280:	00031823 	negu	v1,v1
9d004284:	14400016 	bnez	v0,9d0042e0 <_do_print_fF+0x868>
9d004288:	8e230000 	lw	v1,0(s1)
9d00428c:	32730001 	andi	s3,s3,0x1
9d004290:	00001021 	move	v0,zero
9d004294:	12600017 	beqz	s3,9d0042f4 <_do_print_fF+0x87c>
9d004298:	26310004 	addiu	s1,s1,4
9d00429c:	a0700000 	sb	s0,0(v1)
9d0042a0:	0b400eb2 	j	9d003ac8 <_do_print_fF+0x50>
9d0042a4:	02028021 	addu	s0,s0,v0
9d0042a8:	8e220000 	lw	v0,0(s1)
9d0042ac:	00101fc3 	sra	v1,s0,0x1f
9d0042b0:	26310004 	addiu	s1,s1,4
9d0042b4:	ac500000 	sw	s0,0(v0)
9d0042b8:	ac430004 	sw	v1,4(v0)
9d0042bc:	00001021 	move	v0,zero
9d0042c0:	0b400eb2 	j	9d003ac8 <_do_print_fF+0x50>
9d0042c4:	02028021 	addu	s0,s0,v0
9d0042c8:	00a02021 	move	a0,a1
9d0042cc:	0f4021c8 	jal	9d008720 <strlen>
9d0042d0:	afa50070 	sw	a1,112(sp)
9d0042d4:	00403021 	move	a2,v0
9d0042d8:	0b400fd2 	j	9d003f48 <_do_print_fF+0x4d0>
9d0042dc:	8fa50070 	lw	a1,112(sp)
9d0042e0:	00001021 	move	v0,zero
9d0042e4:	26310004 	addiu	s1,s1,4
9d0042e8:	a4700000 	sh	s0,0(v1)
9d0042ec:	0b400eb2 	j	9d003ac8 <_do_print_fF+0x50>
9d0042f0:	02028021 	addu	s0,s0,v0
9d0042f4:	ac700000 	sw	s0,0(v1)
9d0042f8:	0b400eb2 	j	9d003ac8 <_do_print_fF+0x50>
9d0042fc:	02028021 	addu	s0,s0,v0
9d004300:	0b400fd2 	j	9d003f48 <_do_print_fF+0x4d0>
9d004304:	00003021 	move	a2,zero
9d004308:	27a30057 	addiu	v1,sp,87
9d00430c:	afa30068 	sw	v1,104(sp)
9d004310:	0b400f82 	j	9d003e08 <_do_print_fF+0x390>
9d004314:	00609821 	move	s3,v1

Disassembly of section .text.malloc:

9d004318 <malloc>:
9d004318:	27bdffc0 	addiu	sp,sp,-64
9d00431c:	afbf003c 	sw	ra,60(sp)
9d004320:	afbe0038 	sw	s8,56(sp)
9d004324:	afb70034 	sw	s7,52(sp)
9d004328:	afb60030 	sw	s6,48(sp)
9d00432c:	afb5002c 	sw	s5,44(sp)
9d004330:	afb40028 	sw	s4,40(sp)
9d004334:	afb30024 	sw	s3,36(sp)
9d004338:	afb20020 	sw	s2,32(sp)
9d00433c:	afb1001c 	sw	s1,28(sp)
9d004340:	2482000b 	addiu	v0,a0,11
9d004344:	2c430017 	sltiu	v1,v0,23
9d004348:	10600022 	beqz	v1,9d0043d4 <malloc+0xbc>
9d00434c:	afb00018 	sw	s0,24(sp)
9d004350:	2c840011 	sltiu	a0,a0,17
9d004354:	10800090 	beqz	a0,9d004598 <malloc+0x280>
9d004358:	24100010 	li	s0,16
9d00435c:	3c11a000 	lui	s1,0xa000
9d004360:	26310030 	addiu	s1,s1,48
9d004364:	02301821 	addu	v1,s1,s0
9d004368:	8c62000c 	lw	v0,12(v1)
9d00436c:	104300c5 	beq	v0,v1,9d004684 <malloc+0x36c>
9d004370:	001040c2 	srl	t0,s0,0x3
9d004374:	8c450004 	lw	a1,4(v0)
9d004378:	8c44000c 	lw	a0,12(v0)
9d00437c:	2403fffc 	li	v1,-4
9d004380:	00a31824 	and	v1,a1,v1
9d004384:	00431821 	addu	v1,v0,v1
9d004388:	8c660004 	lw	a2,4(v1)
9d00438c:	8c450008 	lw	a1,8(v0)
9d004390:	24420008 	addiu	v0,v0,8
9d004394:	34c60001 	ori	a2,a2,0x1
9d004398:	aca4000c 	sw	a0,12(a1)
9d00439c:	ac850008 	sw	a1,8(a0)
9d0043a0:	ac660004 	sw	a2,4(v1)
9d0043a4:	8fbf003c 	lw	ra,60(sp)
9d0043a8:	8fbe0038 	lw	s8,56(sp)
9d0043ac:	8fb70034 	lw	s7,52(sp)
9d0043b0:	8fb60030 	lw	s6,48(sp)
9d0043b4:	8fb5002c 	lw	s5,44(sp)
9d0043b8:	8fb40028 	lw	s4,40(sp)
9d0043bc:	8fb30024 	lw	s3,36(sp)
9d0043c0:	8fb20020 	lw	s2,32(sp)
9d0043c4:	8fb1001c 	lw	s1,28(sp)
9d0043c8:	8fb00018 	lw	s0,24(sp)
9d0043cc:	03e00008 	jr	ra
9d0043d0:	27bd0040 	addiu	sp,sp,64
9d0043d4:	2410fff8 	li	s0,-8
9d0043d8:	00508024 	and	s0,v0,s0
9d0043dc:	0600006e 	bltz	s0,9d004598 <malloc+0x280>
9d0043e0:	0204202b 	sltu	a0,s0,a0
9d0043e4:	1480006c 	bnez	a0,9d004598 <malloc+0x280>
9d0043e8:	2e0201f8 	sltiu	v0,s0,504
9d0043ec:	1440ffdc 	bnez	v0,9d004360 <malloc+0x48>
9d0043f0:	3c11a000 	lui	s1,0xa000
9d0043f4:	00101242 	srl	v0,s0,0x9
9d0043f8:	1040000a 	beqz	v0,9d004424 <malloc+0x10c>
9d0043fc:	2406007e 	li	a2,126
9d004400:	2c430005 	sltiu	v1,v0,5
9d004404:	14600043 	bnez	v1,9d004514 <malloc+0x1fc>
9d004408:	00104182 	srl	t0,s0,0x6
9d00440c:	2c430015 	sltiu	v1,v0,21
9d004410:	10600107 	beqz	v1,9d004830 <malloc+0x518>
9d004414:	2c430055 	sltiu	v1,v0,85
9d004418:	2448005b 	addiu	t0,v0,91
9d00441c:	0b40110b 	j	9d00442c <malloc+0x114>
9d004420:	00083040 	sll	a2,t0,0x1
9d004424:	2408003f 	li	t0,63
9d004428:	3c11a000 	lui	s1,0xa000
9d00442c:	00063080 	sll	a2,a2,0x2
9d004430:	26310030 	addiu	s1,s1,48
9d004434:	02263021 	addu	a2,s1,a2
9d004438:	8cc2000c 	lw	v0,12(a2)
9d00443c:	10c20015 	beq	a2,v0,9d004494 <malloc+0x17c>
9d004440:	2403fffc 	li	v1,-4
9d004444:	8c440004 	lw	a0,4(v0)
9d004448:	00832024 	and	a0,a0,v1
9d00444c:	00901823 	subu	v1,a0,s0
9d004450:	28650010 	slti	a1,v1,16
9d004454:	50a0000f 	beqzl	a1,9d004494 <malloc+0x17c>
9d004458:	2508ffff 	addiu	t0,t0,-1
9d00445c:	0460000a 	bltz	v1,9d004488 <malloc+0x170>
9d004460:	2407fffc 	li	a3,-4
9d004464:	0b401176 	j	9d0045d8 <malloc+0x2c0>
9d004468:	00442021 	addu	a0,v0,a0
9d00446c:	00872024 	and	a0,a0,a3
9d004470:	00901823 	subu	v1,a0,s0
9d004474:	28650010 	slti	a1,v1,16
9d004478:	50a00006 	beqzl	a1,9d004494 <malloc+0x17c>
9d00447c:	2508ffff 	addiu	t0,t0,-1
9d004480:	04630055 	bgezl	v1,9d0045d8 <malloc+0x2c0>
9d004484:	00442021 	addu	a0,v0,a0
9d004488:	8c42000c 	lw	v0,12(v0)
9d00448c:	54c2fff7 	bnel	a2,v0,9d00446c <malloc+0x154>
9d004490:	8c440004 	lw	a0,4(v0)
9d004494:	25080001 	addiu	t0,t0,1
9d004498:	8e220010 	lw	v0,16(s1)
9d00449c:	3c06a000 	lui	a2,0xa000
9d0044a0:	24c60038 	addiu	a2,a2,56
9d0044a4:	1046007d 	beq	v0,a2,9d00469c <malloc+0x384>
9d0044a8:	2403fffc 	li	v1,-4
9d0044ac:	8c440004 	lw	a0,4(v0)
9d0044b0:	00832024 	and	a0,a0,v1
9d0044b4:	00901823 	subu	v1,a0,s0
9d0044b8:	28650010 	slti	a1,v1,16
9d0044bc:	50a0005a 	beqzl	a1,9d004628 <malloc+0x310>
9d0044c0:	00502021 	addu	a0,v0,s0
9d0044c4:	ae260014 	sw	a2,20(s1)
9d0044c8:	04600015 	bltz	v1,9d004520 <malloc+0x208>
9d0044cc:	ae260010 	sw	a2,16(s1)
9d0044d0:	00442021 	addu	a0,v0,a0
9d0044d4:	8c830004 	lw	v1,4(a0)
9d0044d8:	24420008 	addiu	v0,v0,8
9d0044dc:	34630001 	ori	v1,v1,0x1
9d0044e0:	ac830004 	sw	v1,4(a0)
9d0044e4:	8fbf003c 	lw	ra,60(sp)
9d0044e8:	8fbe0038 	lw	s8,56(sp)
9d0044ec:	8fb70034 	lw	s7,52(sp)
9d0044f0:	8fb60030 	lw	s6,48(sp)
9d0044f4:	8fb5002c 	lw	s5,44(sp)
9d0044f8:	8fb40028 	lw	s4,40(sp)
9d0044fc:	8fb30024 	lw	s3,36(sp)
9d004500:	8fb20020 	lw	s2,32(sp)
9d004504:	8fb1001c 	lw	s1,28(sp)
9d004508:	8fb00018 	lw	s0,24(sp)
9d00450c:	03e00008 	jr	ra
9d004510:	27bd0040 	addiu	sp,sp,64
9d004514:	25080038 	addiu	t0,t0,56
9d004518:	0b40110a 	j	9d004428 <malloc+0x110>
9d00451c:	00083040 	sll	a2,t0,0x1
9d004520:	2c830200 	sltiu	v1,a0,512
9d004524:	546000cb 	bnezl	v1,9d004854 <malloc+0x53c>
9d004528:	000420c2 	srl	a0,a0,0x3
9d00452c:	00041a42 	srl	v1,a0,0x9
9d004530:	2c650005 	sltiu	a1,v1,5
9d004534:	10a00153 	beqz	a1,9d004a84 <malloc+0x76c>
9d004538:	2c650015 	sltiu	a1,v1,21
9d00453c:	00042982 	srl	a1,a0,0x6
9d004540:	24a50038 	addiu	a1,a1,56
9d004544:	000538c0 	sll	a3,a1,0x3
9d004548:	02273821 	addu	a3,s1,a3
9d00454c:	8ce30008 	lw	v1,8(a3)
9d004550:	50670159 	beql	v1,a3,9d004ab8 <malloc+0x7a0>
9d004554:	8e240004 	lw	a0,4(s1)
9d004558:	2409fffc 	li	t1,-4
9d00455c:	8c650004 	lw	a1,4(v1)
9d004560:	00a92824 	and	a1,a1,t1
9d004564:	0085282b 	sltu	a1,a0,a1
9d004568:	50a00005 	beqzl	a1,9d004580 <malloc+0x268>
9d00456c:	8c65000c 	lw	a1,12(v1)
9d004570:	8c630008 	lw	v1,8(v1)
9d004574:	54e3fffa 	bnel	a3,v1,9d004560 <malloc+0x248>
9d004578:	8c650004 	lw	a1,4(v1)
9d00457c:	8c65000c 	lw	a1,12(v1)
9d004580:	8e240004 	lw	a0,4(s1)
9d004584:	ac45000c 	sw	a1,12(v0)
9d004588:	ac430008 	sw	v1,8(v0)
9d00458c:	aca20008 	sw	v0,8(a1)
9d004590:	0b4011a8 	j	9d0046a0 <malloc+0x388>
9d004594:	ac62000c 	sw	v0,12(v1)
9d004598:	2403000c 	li	v1,12
9d00459c:	3c02a000 	lui	v0,0xa000
9d0045a0:	ac430024 	sw	v1,36(v0)
9d0045a4:	00001021 	move	v0,zero
9d0045a8:	8fbf003c 	lw	ra,60(sp)
9d0045ac:	8fbe0038 	lw	s8,56(sp)
9d0045b0:	8fb70034 	lw	s7,52(sp)
9d0045b4:	8fb60030 	lw	s6,48(sp)
9d0045b8:	8fb5002c 	lw	s5,44(sp)
9d0045bc:	8fb40028 	lw	s4,40(sp)
9d0045c0:	8fb30024 	lw	s3,36(sp)
9d0045c4:	8fb20020 	lw	s2,32(sp)
9d0045c8:	8fb1001c 	lw	s1,28(sp)
9d0045cc:	8fb00018 	lw	s0,24(sp)
9d0045d0:	03e00008 	jr	ra
9d0045d4:	27bd0040 	addiu	sp,sp,64
9d0045d8:	8c860004 	lw	a2,4(a0)
9d0045dc:	8c43000c 	lw	v1,12(v0)
9d0045e0:	8c450008 	lw	a1,8(v0)
9d0045e4:	34c60001 	ori	a2,a2,0x1
9d0045e8:	24420008 	addiu	v0,v0,8
9d0045ec:	aca3000c 	sw	v1,12(a1)
9d0045f0:	ac650008 	sw	a1,8(v1)
9d0045f4:	ac860004 	sw	a2,4(a0)
9d0045f8:	8fbf003c 	lw	ra,60(sp)
9d0045fc:	8fbe0038 	lw	s8,56(sp)
9d004600:	8fb70034 	lw	s7,52(sp)
9d004604:	8fb60030 	lw	s6,48(sp)
9d004608:	8fb5002c 	lw	s5,44(sp)
9d00460c:	8fb40028 	lw	s4,40(sp)
9d004610:	8fb30024 	lw	s3,36(sp)
9d004614:	8fb20020 	lw	s2,32(sp)
9d004618:	8fb1001c 	lw	s1,28(sp)
9d00461c:	8fb00018 	lw	s0,24(sp)
9d004620:	03e00008 	jr	ra
9d004624:	27bd0040 	addiu	sp,sp,64
9d004628:	36100001 	ori	s0,s0,0x1
9d00462c:	34670001 	ori	a3,v1,0x1
9d004630:	00832821 	addu	a1,a0,v1
9d004634:	ac500004 	sw	s0,4(v0)
9d004638:	24420008 	addiu	v0,v0,8
9d00463c:	ae240014 	sw	a0,20(s1)
9d004640:	ae240010 	sw	a0,16(s1)
9d004644:	ac86000c 	sw	a2,12(a0)
9d004648:	ac860008 	sw	a2,8(a0)
9d00464c:	ac870004 	sw	a3,4(a0)
9d004650:	aca30000 	sw	v1,0(a1)
9d004654:	8fbf003c 	lw	ra,60(sp)
9d004658:	8fbe0038 	lw	s8,56(sp)
9d00465c:	8fb70034 	lw	s7,52(sp)
9d004660:	8fb60030 	lw	s6,48(sp)
9d004664:	8fb5002c 	lw	s5,44(sp)
9d004668:	8fb40028 	lw	s4,40(sp)
9d00466c:	8fb30024 	lw	s3,36(sp)
9d004670:	8fb20020 	lw	s2,32(sp)
9d004674:	8fb1001c 	lw	s1,28(sp)
9d004678:	8fb00018 	lw	s0,24(sp)
9d00467c:	03e00008 	jr	ra
9d004680:	27bd0040 	addiu	sp,sp,64
9d004684:	24430008 	addiu	v1,v0,8
9d004688:	8c420014 	lw	v0,20(v0)
9d00468c:	1062ff82 	beq	v1,v0,9d004498 <malloc+0x180>
9d004690:	25080002 	addiu	t0,t0,2
9d004694:	0b4010de 	j	9d004378 <malloc+0x60>
9d004698:	8c450004 	lw	a1,4(v0)
9d00469c:	8e240004 	lw	a0,4(s1)
9d0046a0:	00081083 	sra	v0,t0,0x2
9d0046a4:	24070001 	li	a3,1
9d0046a8:	00473804 	sllv	a3,a3,v0
9d0046ac:	0087102b 	sltu	v0,a0,a3
9d0046b0:	5440002b 	bnezl	v0,9d004760 <malloc+0x448>
9d0046b4:	8e320008 	lw	s2,8(s1)
9d0046b8:	00871024 	and	v0,a0,a3
9d0046bc:	50400073 	beqzl	v0,9d00488c <malloc+0x574>
9d0046c0:	00073840 	sll	a3,a3,0x1
9d0046c4:	240afffc 	li	t2,-4
9d0046c8:	000858c0 	sll	t3,t0,0x3
9d0046cc:	022b5821 	addu	t3,s1,t3
9d0046d0:	01604821 	move	t1,t3
9d0046d4:	01006021 	move	t4,t0
9d0046d8:	8d22000c 	lw	v0,12(t1)
9d0046dc:	55220009 	bnel	t1,v0,9d004704 <malloc+0x3ec>
9d0046e0:	8c440004 	lw	a0,4(v0)
9d0046e4:	0b401231 	j	9d0048c4 <malloc+0x5ac>
9d0046e8:	258c0001 	addiu	t4,t4,1
9d0046ec:	04630093 	bgezl	v1,9d00493c <malloc+0x624>
9d0046f0:	00442021 	addu	a0,v0,a0
9d0046f4:	8c42000c 	lw	v0,12(v0)
9d0046f8:	51220072 	beql	t1,v0,9d0048c4 <malloc+0x5ac>
9d0046fc:	258c0001 	addiu	t4,t4,1
9d004700:	8c440004 	lw	a0,4(v0)
9d004704:	008a2024 	and	a0,a0,t2
9d004708:	00901823 	subu	v1,a0,s0
9d00470c:	28650010 	slti	a1,v1,16
9d004710:	14a0fff6 	bnez	a1,9d0046ec <malloc+0x3d4>
9d004714:	00000000 	nop
9d004718:	8c45000c 	lw	a1,12(v0)
9d00471c:	8c470008 	lw	a3,8(v0)
9d004720:	00502021 	addu	a0,v0,s0
9d004724:	36100001 	ori	s0,s0,0x1
9d004728:	34690001 	ori	t1,v1,0x1
9d00472c:	00834021 	addu	t0,a0,v1
9d004730:	ac500004 	sw	s0,4(v0)
9d004734:	24420008 	addiu	v0,v0,8
9d004738:	ace5000c 	sw	a1,12(a3)
9d00473c:	aca70008 	sw	a3,8(a1)
9d004740:	ae240014 	sw	a0,20(s1)
9d004744:	ae240010 	sw	a0,16(s1)
9d004748:	ac86000c 	sw	a2,12(a0)
9d00474c:	ac860008 	sw	a2,8(a0)
9d004750:	ac890004 	sw	t1,4(a0)
9d004754:	0b4010e9 	j	9d0043a4 <malloc+0x8c>
9d004758:	ad030000 	sw	v1,0(t0)
9d00475c:	8e320008 	lw	s2,8(s1)
9d004760:	8e540004 	lw	s4,4(s2)
9d004764:	2402fffc 	li	v0,-4
9d004768:	0282a024 	and	s4,s4,v0
9d00476c:	0290102b 	sltu	v0,s4,s0
9d004770:	14400004 	bnez	v0,9d004784 <malloc+0x46c>
9d004774:	02901023 	subu	v0,s4,s0
9d004778:	28430010 	slti	v1,v0,16
9d00477c:	10600025 	beqz	v1,9d004814 <malloc+0x4fc>
9d004780:	02501821 	addu	v1,s2,s0
9d004784:	3c02a000 	lui	v0,0xa000
9d004788:	8c5506d4 	lw	s5,1748(v0)
9d00478c:	3c1ea000 	lui	s8,0xa000
9d004790:	0254b821 	addu	s7,s2,s4
9d004794:	26b50010 	addiu	s5,s5,16
9d004798:	0f402440 	jal	9d009100 <getpagesize>
9d00479c:	02b0a821 	addu	s5,s5,s0
9d0047a0:	0040b021 	move	s6,v0
9d0047a4:	8fc30028 	lw	v1,40(s8)
9d0047a8:	2402ffff 	li	v0,-1
9d0047ac:	10620004 	beq	v1,v0,9d0047c0 <malloc+0x4a8>
9d0047b0:	26a2ffff 	addiu	v0,s5,-1
9d0047b4:	00561021 	addu	v0,v0,s6
9d0047b8:	0016a823 	negu	s5,s6
9d0047bc:	02a2a824 	and	s5,s5,v0
9d0047c0:	0f402323 	jal	9d008c8c <sbrk>
9d0047c4:	02a02021 	move	a0,s5
9d0047c8:	00409821 	move	s3,v0
9d0047cc:	2402ffff 	li	v0,-1
9d0047d0:	52620007 	beql	s3,v0,9d0047f0 <malloc+0x4d8>
9d0047d4:	8e320008 	lw	s2,8(s1)
9d0047d8:	0277102b 	sltu	v0,s3,s7
9d0047dc:	10400060 	beqz	v0,9d004960 <malloc+0x648>
9d0047e0:	3c03a000 	lui	v1,0xa000
9d0047e4:	5251005f 	beql	s2,s1,9d004964 <malloc+0x64c>
9d0047e8:	8c6206a4 	lw	v0,1700(v1)
9d0047ec:	8e320008 	lw	s2,8(s1)
9d0047f0:	8e430004 	lw	v1,4(s2)
9d0047f4:	2402fffc 	li	v0,-4
9d0047f8:	00621024 	and	v0,v1,v0
9d0047fc:	0050182b 	sltu	v1,v0,s0
9d004800:	146000a4 	bnez	v1,9d004a94 <malloc+0x77c>
9d004804:	00501023 	subu	v0,v0,s0
9d004808:	28430010 	slti	v1,v0,16
9d00480c:	146000a1 	bnez	v1,9d004a94 <malloc+0x77c>
9d004810:	02501821 	addu	v1,s2,s0
9d004814:	36100001 	ori	s0,s0,0x1
9d004818:	34440001 	ori	a0,v0,0x1
9d00481c:	ae500004 	sw	s0,4(s2)
9d004820:	26420008 	addiu	v0,s2,8
9d004824:	ae230008 	sw	v1,8(s1)
9d004828:	0b4010e9 	j	9d0043a4 <malloc+0x8c>
9d00482c:	ac640004 	sw	a0,4(v1)
9d004830:	14600021 	bnez	v1,9d0048b8 <malloc+0x5a0>
9d004834:	00104302 	srl	t0,s0,0xc
9d004838:	2c430155 	sltiu	v1,v0,341
9d00483c:	1060008b 	beqz	v1,9d004a6c <malloc+0x754>
9d004840:	2c420555 	sltiu	v0,v0,1365
9d004844:	001043c2 	srl	t0,s0,0xf
9d004848:	25080077 	addiu	t0,t0,119
9d00484c:	0b40110a 	j	9d004428 <malloc+0x110>
9d004850:	00083040 	sll	a2,t0,0x1
9d004854:	000418c0 	sll	v1,a0,0x3
9d004858:	02231821 	addu	v1,s1,v1
9d00485c:	8e270004 	lw	a3,4(s1)
9d004860:	8c650008 	lw	a1,8(v1)
9d004864:	00042083 	sra	a0,a0,0x2
9d004868:	24090001 	li	t1,1
9d00486c:	00892004 	sllv	a0,t1,a0
9d004870:	00872025 	or	a0,a0,a3
9d004874:	ac43000c 	sw	v1,12(v0)
9d004878:	ac450008 	sw	a1,8(v0)
9d00487c:	ae240004 	sw	a0,4(s1)
9d004880:	ac620008 	sw	v0,8(v1)
9d004884:	0b4011a8 	j	9d0046a0 <malloc+0x388>
9d004888:	aca2000c 	sw	v0,12(a1)
9d00488c:	2402fffc 	li	v0,-4
9d004890:	01024024 	and	t0,t0,v0
9d004894:	00871024 	and	v0,a0,a3
9d004898:	1440ff8a 	bnez	v0,9d0046c4 <malloc+0x3ac>
9d00489c:	25080004 	addiu	t0,t0,4
9d0048a0:	00073840 	sll	a3,a3,0x1
9d0048a4:	00871024 	and	v0,a0,a3
9d0048a8:	1040fffd 	beqz	v0,9d0048a0 <malloc+0x588>
9d0048ac:	25080004 	addiu	t0,t0,4
9d0048b0:	0b4011b2 	j	9d0046c8 <malloc+0x3b0>
9d0048b4:	240afffc 	li	t2,-4
9d0048b8:	2508006e 	addiu	t0,t0,110
9d0048bc:	0b40110a 	j	9d004428 <malloc+0x110>
9d0048c0:	00083040 	sll	a2,t0,0x1
9d0048c4:	31820003 	andi	v0,t4,0x3
9d0048c8:	1440ff83 	bnez	v0,9d0046d8 <malloc+0x3c0>
9d0048cc:	25290008 	addiu	t1,t1,8
9d0048d0:	0b401239 	j	9d0048e4 <malloc+0x5cc>
9d0048d4:	2562fff8 	addiu	v0,t3,-8
9d0048d8:	15620009 	bne	t3,v0,9d004900 <malloc+0x5e8>
9d0048dc:	2508ffff 	addiu	t0,t0,-1
9d0048e0:	2562fff8 	addiu	v0,t3,-8
9d0048e4:	31030003 	andi	v1,t0,0x3
9d0048e8:	5460fffb 	bnezl	v1,9d0048d8 <malloc+0x5c0>
9d0048ec:	8d6b0000 	lw	t3,0(t3)
9d0048f0:	8e220004 	lw	v0,4(s1)
9d0048f4:	00071827 	nor	v1,zero,a3
9d0048f8:	00621024 	and	v0,v1,v0
9d0048fc:	ae220004 	sw	v0,4(s1)
9d004900:	8e220004 	lw	v0,4(s1)
9d004904:	00073840 	sll	a3,a3,0x1
9d004908:	0047182b 	sltu	v1,v0,a3
9d00490c:	5460ff94 	bnezl	v1,9d004760 <malloc+0x448>
9d004910:	8e320008 	lw	s2,8(s1)
9d004914:	10e0ff91 	beqz	a3,9d00475c <malloc+0x444>
9d004918:	00e21824 	and	v1,a3,v0
9d00491c:	1460ff6a 	bnez	v1,9d0046c8 <malloc+0x3b0>
9d004920:	01804021 	move	t0,t4
9d004924:	00073840 	sll	a3,a3,0x1
9d004928:	00e21824 	and	v1,a3,v0
9d00492c:	1060fffd 	beqz	v1,9d004924 <malloc+0x60c>
9d004930:	25080004 	addiu	t0,t0,4
9d004934:	0b4011b3 	j	9d0046cc <malloc+0x3b4>
9d004938:	000858c0 	sll	t3,t0,0x3
9d00493c:	8c860004 	lw	a2,4(a0)
9d004940:	8c43000c 	lw	v1,12(v0)
9d004944:	8c450008 	lw	a1,8(v0)
9d004948:	34c60001 	ori	a2,a2,0x1
9d00494c:	ac860004 	sw	a2,4(a0)
9d004950:	24420008 	addiu	v0,v0,8
9d004954:	aca3000c 	sw	v1,12(a1)
9d004958:	0b4010e9 	j	9d0043a4 <malloc+0x8c>
9d00495c:	ac650008 	sw	a1,8(v1)
9d004960:	8c6206a4 	lw	v0,1700(v1)
9d004964:	26c5ffff 	addiu	a1,s6,-1
9d004968:	02a21021 	addu	v0,s5,v0
9d00496c:	12f3005e 	beq	s7,s3,9d004ae8 <malloc+0x7d0>
9d004970:	ac6206a4 	sw	v0,1700(v1)
9d004974:	8fc60028 	lw	a2,40(s8)
9d004978:	2404ffff 	li	a0,-1
9d00497c:	50c4006a 	beql	a2,a0,9d004b28 <malloc+0x810>
9d004980:	3c02a000 	lui	v0,0xa000
9d004984:	0277b823 	subu	s7,s3,s7
9d004988:	00571021 	addu	v0,v0,s7
9d00498c:	ac6206a4 	sw	v0,1700(v1)
9d004990:	32640007 	andi	a0,s3,0x7
9d004994:	10800004 	beqz	a0,9d0049a8 <malloc+0x690>
9d004998:	00001021 	move	v0,zero
9d00499c:	24020008 	li	v0,8
9d0049a0:	00441023 	subu	v0,v0,a0
9d0049a4:	02629821 	addu	s3,s3,v0
9d0049a8:	0275a821 	addu	s5,s3,s5
9d0049ac:	00561021 	addu	v0,v0,s6
9d0049b0:	02a52824 	and	a1,s5,a1
9d0049b4:	0045a823 	subu	s5,v0,a1
9d0049b8:	02a02021 	move	a0,s5
9d0049bc:	0f402323 	jal	9d008c8c <sbrk>
9d0049c0:	afa30010 	sw	v1,16(sp)
9d0049c4:	2404ffff 	li	a0,-1
9d0049c8:	10440054 	beq	v0,a0,9d004b1c <malloc+0x804>
9d0049cc:	8fa30010 	lw	v1,16(sp)
9d0049d0:	00531023 	subu	v0,v0,s3
9d0049d4:	02a22021 	addu	a0,s5,v0
9d0049d8:	34840001 	ori	a0,a0,0x1
9d0049dc:	8c6206a4 	lw	v0,1700(v1)
9d0049e0:	ae330008 	sw	s3,8(s1)
9d0049e4:	02a21021 	addu	v0,s5,v0
9d0049e8:	ac6206a4 	sw	v0,1700(v1)
9d0049ec:	12510010 	beq	s2,s1,9d004a30 <malloc+0x718>
9d0049f0:	ae640004 	sw	a0,4(s3)
9d0049f4:	2e830010 	sltiu	v1,s4,16
9d0049f8:	1460002a 	bnez	v1,9d004aa4 <malloc+0x78c>
9d0049fc:	2403fff8 	li	v1,-8
9d004a00:	2694fff4 	addiu	s4,s4,-12
9d004a04:	02831824 	and	v1,s4,v1
9d004a08:	02432021 	addu	a0,s2,v1
9d004a0c:	24050005 	li	a1,5
9d004a10:	ac850004 	sw	a1,4(a0)
9d004a14:	ac850008 	sw	a1,8(a0)
9d004a18:	8e450004 	lw	a1,4(s2)
9d004a1c:	2c640010 	sltiu	a0,v1,16
9d004a20:	30a50001 	andi	a1,a1,0x1
9d004a24:	00651825 	or	v1,v1,a1
9d004a28:	10800037 	beqz	a0,9d004b08 <malloc+0x7f0>
9d004a2c:	ae430004 	sw	v1,4(s2)
9d004a30:	3c03a000 	lui	v1,0xa000
9d004a34:	8c6406d0 	lw	a0,1744(v1)
9d004a38:	0082202b 	sltu	a0,a0,v0
9d004a3c:	54800001 	bnezl	a0,9d004a44 <malloc+0x72c>
9d004a40:	ac6206d0 	sw	v0,1744(v1)
9d004a44:	3c03a000 	lui	v1,0xa000
9d004a48:	8c6406cc 	lw	a0,1740(v1)
9d004a4c:	0082202b 	sltu	a0,a0,v0
9d004a50:	10800002 	beqz	a0,9d004a5c <malloc+0x744>
9d004a54:	8e320008 	lw	s2,8(s1)
9d004a58:	ac6206cc 	sw	v0,1740(v1)
9d004a5c:	8e430004 	lw	v1,4(s2)
9d004a60:	2402fffc 	li	v0,-4
9d004a64:	0b4011ff 	j	9d0047fc <malloc+0x4e4>
9d004a68:	00621024 	and	v0,v1,v0
9d004a6c:	5040000b 	beqzl	v0,9d004a9c <malloc+0x784>
9d004a70:	240600fc 	li	a2,252
9d004a74:	00104482 	srl	t0,s0,0x12
9d004a78:	2508007c 	addiu	t0,t0,124
9d004a7c:	0b40110a 	j	9d004428 <malloc+0x110>
9d004a80:	00083040 	sll	a2,t0,0x1
9d004a84:	50a00013 	beqzl	a1,9d004ad4 <malloc+0x7bc>
9d004a88:	2c650055 	sltiu	a1,v1,85
9d004a8c:	0b401151 	j	9d004544 <malloc+0x22c>
9d004a90:	2465005b 	addiu	a1,v1,91
9d004a94:	0b4010e9 	j	9d0043a4 <malloc+0x8c>
9d004a98:	00001021 	move	v0,zero
9d004a9c:	0b40110a 	j	9d004428 <malloc+0x110>
9d004aa0:	2408007e 	li	t0,126
9d004aa4:	24020001 	li	v0,1
9d004aa8:	ae620004 	sw	v0,4(s3)
9d004aac:	02609021 	move	s2,s3
9d004ab0:	0b4011ff 	j	9d0047fc <malloc+0x4e4>
9d004ab4:	00001021 	move	v0,zero
9d004ab8:	00052883 	sra	a1,a1,0x2
9d004abc:	24070001 	li	a3,1
9d004ac0:	00a72804 	sllv	a1,a3,a1
9d004ac4:	00a42025 	or	a0,a1,a0
9d004ac8:	ae240004 	sw	a0,4(s1)
9d004acc:	0b401161 	j	9d004584 <malloc+0x26c>
9d004ad0:	00602821 	move	a1,v1
9d004ad4:	50a00016 	beqzl	a1,9d004b30 <malloc+0x818>
9d004ad8:	2c650155 	sltiu	a1,v1,341
9d004adc:	00042b02 	srl	a1,a0,0xc
9d004ae0:	0b401151 	j	9d004544 <malloc+0x22c>
9d004ae4:	24a5006e 	addiu	a1,a1,110
9d004ae8:	02e52024 	and	a0,s7,a1
9d004aec:	5480ffa2 	bnezl	a0,9d004978 <malloc+0x660>
9d004af0:	8fc60028 	lw	a2,40(s8)
9d004af4:	8e230008 	lw	v1,8(s1)
9d004af8:	02b42021 	addu	a0,s5,s4
9d004afc:	34840001 	ori	a0,a0,0x1
9d004b00:	0b40128c 	j	9d004a30 <malloc+0x718>
9d004b04:	ac640004 	sw	a0,4(v1)
9d004b08:	0f401a51 	jal	9d006944 <free>
9d004b0c:	26440008 	addiu	a0,s2,8
9d004b10:	3c02a000 	lui	v0,0xa000
9d004b14:	0b40128c 	j	9d004a30 <malloc+0x718>
9d004b18:	8c4206a4 	lw	v0,1700(v0)
9d004b1c:	24040001 	li	a0,1
9d004b20:	0b401277 	j	9d0049dc <malloc+0x6c4>
9d004b24:	0000a821 	move	s5,zero
9d004b28:	0b401264 	j	9d004990 <malloc+0x678>
9d004b2c:	ac530028 	sw	s3,40(v0)
9d004b30:	10a00004 	beqz	a1,9d004b44 <malloc+0x82c>
9d004b34:	2c630555 	sltiu	v1,v1,1365
9d004b38:	00042bc2 	srl	a1,a0,0xf
9d004b3c:	0b401151 	j	9d004544 <malloc+0x22c>
9d004b40:	24a50077 	addiu	a1,a1,119
9d004b44:	1060fe7f 	beqz	v1,9d004544 <malloc+0x22c>
9d004b48:	2405007e 	li	a1,126
9d004b4c:	00042c82 	srl	a1,a0,0x12
9d004b50:	0b401151 	j	9d004544 <malloc+0x22c>
9d004b54:	24a5007c 	addiu	a1,a1,124

Disassembly of section .dinit:

9d004b58 <.dinit>:
9d004b58:	a0000620 	sb	zero,1568(zero)
9d004b5c:	00000084 	0x84
9d004b60:	00000000 	nop
9d004b64:	a0000008 	sb	zero,8(zero)
9d004b68:	0000001c 	0x1c
9d004b6c:	00000000 	nop
9d004b70:	a00006d8 	sb	zero,1752(zero)
9d004b74:	00000024 	and	zero,zero,zero
9d004b78:	00000001 	movf	zero,zero,$fcc0
9d004b7c:	00067677 	0x67677
9d004b80:	01111553 	0x1111553
9d004b84:	15555724 	bne	t2,s5,9d01a818 <.LFE0+0x11710>
9d004b88:	8000006e 	lb	zero,110(zero)
9d004b8c:	0000ceb4 	teq	zero,zero,0x33a
9d004b90:	002d867d 	0x2d867d
9d004b94:	05555837 	0x5555837
9d004b98:	40000089 	0x40000089
9d004b9c:	80000044 	lb	zero,68(zero)
9d004ba0:	a000073c 	sb	zero,1852(zero)
9d004ba4:	00000004 	sllv	zero,zero,zero
9d004ba8:	00000001 	movf	zero,zero,$fcc0
9d004bac:	00000001 	movf	zero,zero,$fcc0
9d004bb0:	a000050c 	sb	zero,1292(zero)
9d004bb4:	0000008c 	syscall	0x2
9d004bb8:	00000001 	movf	zero,zero,$fcc0
9d004bbc:	171d9407 	bne	t8,sp,9cfe9bdc <_bmxdkpba_address+0x9cfc9bdc>
9d004bc0:	2aac64d8 	slti	t4,s5,25816
9d004bc4:	80000089 	lb	zero,137(zero)
9d004bc8:	b17217f8 	0xb17217f8
9d004bcc:	0000007e 	0x7e
9d004bd0:	934b108a 	lbu	t3,4234(k0)
9d004bd4:	0000007e 	0x7e
9d004bd8:	f0a450d1 	0xf0a450d1
9d004bdc:	0000007d 	0x7d
9d004be0:	bfd7d1df 	cache	0x17,-11809(s8)
9d004be4:	0000007d 	0x7d
9d004be8:	934b108a 	lbu	t3,4234(k0)
9d004bec:	0000007d 	0x7d
9d004bf0:	d49f69e4 	ldc1	$f31,27108(a0)
9d004bf4:	0000007c 	0x7c
9d004bf8:	88bc7411 	lwl	gp,29713(a1)
9d004bfc:	0000007c 	0x7c
9d004c00:	842cc5ad 	lh	t4,-14931(at)
9d004c04:	0000007b 	0x7b
	...
9d004c10:	f1383b71 	0xf1383b71
9d004c14:	0000007b 	0x7b
9d004c18:	e47fbe3d 	swc1	$f31,-16835(v1)
9d004c1c:	0000007c 	0x7c
9d004c20:	a30c5e11 	sb	t4,24081(t8)
9d004c24:	0000007d 	0x7d
9d004c28:	cf991f66 	pref	0x19,8038(gp)
9d004c2c:	0000007d 	0x7d
9d004c30:	f8947afd 	sdc2	$20,31485(a0)
9d004c34:	0000007d 	0x7d
9d004c38:	8f42faf4 	lw	v0,-1292(k0)
9d004c3c:	0000007e 	0x7e
9d004c40:	a0ec7f42 	sb	t4,32578(a3)
9d004c44:	0000007e 	0x7e
9d004c48:	a0000720 	sb	zero,1824(zero)
9d004c4c:	0000001c 	0x1c
9d004c50:	00000001 	movf	zero,zero,$fcc0
9d004c54:	00050750 	0x50750
9d004c58:	002bbd27 	0x2bbd27
9d004c5c:	013b248f 	0x13b248f
9d004c60:	071ac4b3 	0x71ac4b3
9d004c64:	1ebfc01b 	0x1ebfc01b
9d004c68:	58b90c45 	0x58b90c45
9d004c6c:	80000042 	lb	zero,66(zero)
9d004c70:	a0000028 	sb	zero,40(zero)
9d004c74:	00000410 	0x410
9d004c78:	00000001 	movf	zero,zero,$fcc0
9d004c7c:	ffffffff 	sdc3	$31,-1(ra)
9d004c80:	00002000 	sll	a0,zero,0x0
	...
9d004c8c:	a0000030 	sb	zero,48(zero)
9d004c90:	a0000030 	sb	zero,48(zero)
9d004c94:	a0000038 	sb	zero,56(zero)
9d004c98:	a0000038 	sb	zero,56(zero)
9d004c9c:	a0000040 	sb	zero,64(zero)
9d004ca0:	a0000040 	sb	zero,64(zero)
9d004ca4:	a0000048 	sb	zero,72(zero)
9d004ca8:	a0000048 	sb	zero,72(zero)
9d004cac:	a0000050 	sb	zero,80(zero)
9d004cb0:	a0000050 	sb	zero,80(zero)
9d004cb4:	a0000058 	sb	zero,88(zero)
9d004cb8:	a0000058 	sb	zero,88(zero)
9d004cbc:	a0000060 	sb	zero,96(zero)
9d004cc0:	a0000060 	sb	zero,96(zero)
9d004cc4:	a0000068 	sb	zero,104(zero)
9d004cc8:	a0000068 	sb	zero,104(zero)
9d004ccc:	a0000070 	sb	zero,112(zero)
9d004cd0:	a0000070 	sb	zero,112(zero)
9d004cd4:	a0000078 	sb	zero,120(zero)
9d004cd8:	a0000078 	sb	zero,120(zero)
9d004cdc:	a0000080 	sb	zero,128(zero)
9d004ce0:	a0000080 	sb	zero,128(zero)
9d004ce4:	a0000088 	sb	zero,136(zero)
9d004ce8:	a0000088 	sb	zero,136(zero)
9d004cec:	a0000090 	sb	zero,144(zero)
9d004cf0:	a0000090 	sb	zero,144(zero)
9d004cf4:	a0000098 	sb	zero,152(zero)
9d004cf8:	a0000098 	sb	zero,152(zero)
9d004cfc:	a00000a0 	sb	zero,160(zero)
9d004d00:	a00000a0 	sb	zero,160(zero)
9d004d04:	a00000a8 	sb	zero,168(zero)
9d004d08:	a00000a8 	sb	zero,168(zero)
9d004d0c:	a00000b0 	sb	zero,176(zero)
9d004d10:	a00000b0 	sb	zero,176(zero)
9d004d14:	a00000b8 	sb	zero,184(zero)
9d004d18:	a00000b8 	sb	zero,184(zero)
9d004d1c:	a00000c0 	sb	zero,192(zero)
9d004d20:	a00000c0 	sb	zero,192(zero)
9d004d24:	a00000c8 	sb	zero,200(zero)
9d004d28:	a00000c8 	sb	zero,200(zero)
9d004d2c:	a00000d0 	sb	zero,208(zero)
9d004d30:	a00000d0 	sb	zero,208(zero)
9d004d34:	a00000d8 	sb	zero,216(zero)
9d004d38:	a00000d8 	sb	zero,216(zero)
9d004d3c:	a00000e0 	sb	zero,224(zero)
9d004d40:	a00000e0 	sb	zero,224(zero)
9d004d44:	a00000e8 	sb	zero,232(zero)
9d004d48:	a00000e8 	sb	zero,232(zero)
9d004d4c:	a00000f0 	sb	zero,240(zero)
9d004d50:	a00000f0 	sb	zero,240(zero)
9d004d54:	a00000f8 	sb	zero,248(zero)
9d004d58:	a00000f8 	sb	zero,248(zero)
9d004d5c:	a0000100 	sb	zero,256(zero)
9d004d60:	a0000100 	sb	zero,256(zero)
9d004d64:	a0000108 	sb	zero,264(zero)
9d004d68:	a0000108 	sb	zero,264(zero)
9d004d6c:	a0000110 	sb	zero,272(zero)
9d004d70:	a0000110 	sb	zero,272(zero)
9d004d74:	a0000118 	sb	zero,280(zero)
9d004d78:	a0000118 	sb	zero,280(zero)
9d004d7c:	a0000120 	sb	zero,288(zero)
9d004d80:	a0000120 	sb	zero,288(zero)
9d004d84:	a0000128 	sb	zero,296(zero)
9d004d88:	a0000128 	sb	zero,296(zero)
9d004d8c:	a0000130 	sb	zero,304(zero)
9d004d90:	a0000130 	sb	zero,304(zero)
9d004d94:	a0000138 	sb	zero,312(zero)
9d004d98:	a0000138 	sb	zero,312(zero)
9d004d9c:	a0000140 	sb	zero,320(zero)
9d004da0:	a0000140 	sb	zero,320(zero)
9d004da4:	a0000148 	sb	zero,328(zero)
9d004da8:	a0000148 	sb	zero,328(zero)
9d004dac:	a0000150 	sb	zero,336(zero)
9d004db0:	a0000150 	sb	zero,336(zero)
9d004db4:	a0000158 	sb	zero,344(zero)
9d004db8:	a0000158 	sb	zero,344(zero)
9d004dbc:	a0000160 	sb	zero,352(zero)
9d004dc0:	a0000160 	sb	zero,352(zero)
9d004dc4:	a0000168 	sb	zero,360(zero)
9d004dc8:	a0000168 	sb	zero,360(zero)
9d004dcc:	a0000170 	sb	zero,368(zero)
9d004dd0:	a0000170 	sb	zero,368(zero)
9d004dd4:	a0000178 	sb	zero,376(zero)
9d004dd8:	a0000178 	sb	zero,376(zero)
9d004ddc:	a0000180 	sb	zero,384(zero)
9d004de0:	a0000180 	sb	zero,384(zero)
9d004de4:	a0000188 	sb	zero,392(zero)
9d004de8:	a0000188 	sb	zero,392(zero)
9d004dec:	a0000190 	sb	zero,400(zero)
9d004df0:	a0000190 	sb	zero,400(zero)
9d004df4:	a0000198 	sb	zero,408(zero)
9d004df8:	a0000198 	sb	zero,408(zero)
9d004dfc:	a00001a0 	sb	zero,416(zero)
9d004e00:	a00001a0 	sb	zero,416(zero)
9d004e04:	a00001a8 	sb	zero,424(zero)
9d004e08:	a00001a8 	sb	zero,424(zero)
9d004e0c:	a00001b0 	sb	zero,432(zero)
9d004e10:	a00001b0 	sb	zero,432(zero)
9d004e14:	a00001b8 	sb	zero,440(zero)
9d004e18:	a00001b8 	sb	zero,440(zero)
9d004e1c:	a00001c0 	sb	zero,448(zero)
9d004e20:	a00001c0 	sb	zero,448(zero)
9d004e24:	a00001c8 	sb	zero,456(zero)
9d004e28:	a00001c8 	sb	zero,456(zero)
9d004e2c:	a00001d0 	sb	zero,464(zero)
9d004e30:	a00001d0 	sb	zero,464(zero)
9d004e34:	a00001d8 	sb	zero,472(zero)
9d004e38:	a00001d8 	sb	zero,472(zero)
9d004e3c:	a00001e0 	sb	zero,480(zero)
9d004e40:	a00001e0 	sb	zero,480(zero)
9d004e44:	a00001e8 	sb	zero,488(zero)
9d004e48:	a00001e8 	sb	zero,488(zero)
9d004e4c:	a00001f0 	sb	zero,496(zero)
9d004e50:	a00001f0 	sb	zero,496(zero)
9d004e54:	a00001f8 	sb	zero,504(zero)
9d004e58:	a00001f8 	sb	zero,504(zero)
9d004e5c:	a0000200 	sb	zero,512(zero)
9d004e60:	a0000200 	sb	zero,512(zero)
9d004e64:	a0000208 	sb	zero,520(zero)
9d004e68:	a0000208 	sb	zero,520(zero)
9d004e6c:	a0000210 	sb	zero,528(zero)
9d004e70:	a0000210 	sb	zero,528(zero)
9d004e74:	a0000218 	sb	zero,536(zero)
9d004e78:	a0000218 	sb	zero,536(zero)
9d004e7c:	a0000220 	sb	zero,544(zero)
9d004e80:	a0000220 	sb	zero,544(zero)
9d004e84:	a0000228 	sb	zero,552(zero)
9d004e88:	a0000228 	sb	zero,552(zero)
9d004e8c:	a0000230 	sb	zero,560(zero)
9d004e90:	a0000230 	sb	zero,560(zero)
9d004e94:	a0000238 	sb	zero,568(zero)
9d004e98:	a0000238 	sb	zero,568(zero)
9d004e9c:	a0000240 	sb	zero,576(zero)
9d004ea0:	a0000240 	sb	zero,576(zero)
9d004ea4:	a0000248 	sb	zero,584(zero)
9d004ea8:	a0000248 	sb	zero,584(zero)
9d004eac:	a0000250 	sb	zero,592(zero)
9d004eb0:	a0000250 	sb	zero,592(zero)
9d004eb4:	a0000258 	sb	zero,600(zero)
9d004eb8:	a0000258 	sb	zero,600(zero)
9d004ebc:	a0000260 	sb	zero,608(zero)
9d004ec0:	a0000260 	sb	zero,608(zero)
9d004ec4:	a0000268 	sb	zero,616(zero)
9d004ec8:	a0000268 	sb	zero,616(zero)
9d004ecc:	a0000270 	sb	zero,624(zero)
9d004ed0:	a0000270 	sb	zero,624(zero)
9d004ed4:	a0000278 	sb	zero,632(zero)
9d004ed8:	a0000278 	sb	zero,632(zero)
9d004edc:	a0000280 	sb	zero,640(zero)
9d004ee0:	a0000280 	sb	zero,640(zero)
9d004ee4:	a0000288 	sb	zero,648(zero)
9d004ee8:	a0000288 	sb	zero,648(zero)
9d004eec:	a0000290 	sb	zero,656(zero)
9d004ef0:	a0000290 	sb	zero,656(zero)
9d004ef4:	a0000298 	sb	zero,664(zero)
9d004ef8:	a0000298 	sb	zero,664(zero)
9d004efc:	a00002a0 	sb	zero,672(zero)
9d004f00:	a00002a0 	sb	zero,672(zero)
9d004f04:	a00002a8 	sb	zero,680(zero)
9d004f08:	a00002a8 	sb	zero,680(zero)
9d004f0c:	a00002b0 	sb	zero,688(zero)
9d004f10:	a00002b0 	sb	zero,688(zero)
9d004f14:	a00002b8 	sb	zero,696(zero)
9d004f18:	a00002b8 	sb	zero,696(zero)
9d004f1c:	a00002c0 	sb	zero,704(zero)
9d004f20:	a00002c0 	sb	zero,704(zero)
9d004f24:	a00002c8 	sb	zero,712(zero)
9d004f28:	a00002c8 	sb	zero,712(zero)
9d004f2c:	a00002d0 	sb	zero,720(zero)
9d004f30:	a00002d0 	sb	zero,720(zero)
9d004f34:	a00002d8 	sb	zero,728(zero)
9d004f38:	a00002d8 	sb	zero,728(zero)
9d004f3c:	a00002e0 	sb	zero,736(zero)
9d004f40:	a00002e0 	sb	zero,736(zero)
9d004f44:	a00002e8 	sb	zero,744(zero)
9d004f48:	a00002e8 	sb	zero,744(zero)
9d004f4c:	a00002f0 	sb	zero,752(zero)
9d004f50:	a00002f0 	sb	zero,752(zero)
9d004f54:	a00002f8 	sb	zero,760(zero)
9d004f58:	a00002f8 	sb	zero,760(zero)
9d004f5c:	a0000300 	sb	zero,768(zero)
9d004f60:	a0000300 	sb	zero,768(zero)
9d004f64:	a0000308 	sb	zero,776(zero)
9d004f68:	a0000308 	sb	zero,776(zero)
9d004f6c:	a0000310 	sb	zero,784(zero)
9d004f70:	a0000310 	sb	zero,784(zero)
9d004f74:	a0000318 	sb	zero,792(zero)
9d004f78:	a0000318 	sb	zero,792(zero)
9d004f7c:	a0000320 	sb	zero,800(zero)
9d004f80:	a0000320 	sb	zero,800(zero)
9d004f84:	a0000328 	sb	zero,808(zero)
9d004f88:	a0000328 	sb	zero,808(zero)
9d004f8c:	a0000330 	sb	zero,816(zero)
9d004f90:	a0000330 	sb	zero,816(zero)
9d004f94:	a0000338 	sb	zero,824(zero)
9d004f98:	a0000338 	sb	zero,824(zero)
9d004f9c:	a0000340 	sb	zero,832(zero)
9d004fa0:	a0000340 	sb	zero,832(zero)
9d004fa4:	a0000348 	sb	zero,840(zero)
9d004fa8:	a0000348 	sb	zero,840(zero)
9d004fac:	a0000350 	sb	zero,848(zero)
9d004fb0:	a0000350 	sb	zero,848(zero)
9d004fb4:	a0000358 	sb	zero,856(zero)
9d004fb8:	a0000358 	sb	zero,856(zero)
9d004fbc:	a0000360 	sb	zero,864(zero)
9d004fc0:	a0000360 	sb	zero,864(zero)
9d004fc4:	a0000368 	sb	zero,872(zero)
9d004fc8:	a0000368 	sb	zero,872(zero)
9d004fcc:	a0000370 	sb	zero,880(zero)
9d004fd0:	a0000370 	sb	zero,880(zero)
9d004fd4:	a0000378 	sb	zero,888(zero)
9d004fd8:	a0000378 	sb	zero,888(zero)
9d004fdc:	a0000380 	sb	zero,896(zero)
9d004fe0:	a0000380 	sb	zero,896(zero)
9d004fe4:	a0000388 	sb	zero,904(zero)
9d004fe8:	a0000388 	sb	zero,904(zero)
9d004fec:	a0000390 	sb	zero,912(zero)
9d004ff0:	a0000390 	sb	zero,912(zero)
9d004ff4:	a0000398 	sb	zero,920(zero)
9d004ff8:	a0000398 	sb	zero,920(zero)
9d004ffc:	a00003a0 	sb	zero,928(zero)
9d005000:	a00003a0 	sb	zero,928(zero)
9d005004:	a00003a8 	sb	zero,936(zero)
9d005008:	a00003a8 	sb	zero,936(zero)
9d00500c:	a00003b0 	sb	zero,944(zero)
9d005010:	a00003b0 	sb	zero,944(zero)
9d005014:	a00003b8 	sb	zero,952(zero)
9d005018:	a00003b8 	sb	zero,952(zero)
9d00501c:	a00003c0 	sb	zero,960(zero)
9d005020:	a00003c0 	sb	zero,960(zero)
9d005024:	a00003c8 	sb	zero,968(zero)
9d005028:	a00003c8 	sb	zero,968(zero)
9d00502c:	a00003d0 	sb	zero,976(zero)
9d005030:	a00003d0 	sb	zero,976(zero)
9d005034:	a00003d8 	sb	zero,984(zero)
9d005038:	a00003d8 	sb	zero,984(zero)
9d00503c:	a00003e0 	sb	zero,992(zero)
9d005040:	a00003e0 	sb	zero,992(zero)
9d005044:	a00003e8 	sb	zero,1000(zero)
9d005048:	a00003e8 	sb	zero,1000(zero)
9d00504c:	a00003f0 	sb	zero,1008(zero)
9d005050:	a00003f0 	sb	zero,1008(zero)
9d005054:	a00003f8 	sb	zero,1016(zero)
9d005058:	a00003f8 	sb	zero,1016(zero)
9d00505c:	a0000400 	sb	zero,1024(zero)
9d005060:	a0000400 	sb	zero,1024(zero)
9d005064:	a0000408 	sb	zero,1032(zero)
9d005068:	a0000408 	sb	zero,1032(zero)
9d00506c:	a0000410 	sb	zero,1040(zero)
9d005070:	a0000410 	sb	zero,1040(zero)
9d005074:	a0000418 	sb	zero,1048(zero)
9d005078:	a0000418 	sb	zero,1048(zero)
9d00507c:	a0000420 	sb	zero,1056(zero)
9d005080:	a0000420 	sb	zero,1056(zero)
9d005084:	a0000428 	sb	zero,1064(zero)
9d005088:	a0000428 	sb	zero,1064(zero)
9d00508c:	a00006a4 	sb	zero,1700(zero)
9d005090:	00000034 	teq	zero,zero
9d005094:	00000000 	nop
9d005098:	a0000024 	sb	zero,36(zero)
9d00509c:	00000004 	sllv	zero,zero,zero
9d0050a0:	00000000 	nop
9d0050a4:	a0000438 	sb	zero,1080(zero)
9d0050a8:	000000d4 	0xd4
9d0050ac:	00000001 	movf	zero,zero,$fcc0
9d0050b0:	a000049c 	sb	zero,1180(zero)
9d0050b4:	a00004b8 	sb	zero,1208(zero)
9d0050b8:	a00004d4 	sb	zero,1236(zero)
9d0050bc:	a0000498 	sb	zero,1176(zero)
9d0050c0:	a0000598 	sb	zero,1432(zero)
9d0050c4:	00000001 	movf	zero,zero,$fcc0
	...
9d005114:	ffffffff 	sdc3	$31,-1(ra)
9d005118:	ffffffff 	sdc3	$31,-1(ra)
9d00511c:	00000000 	nop
9d005120:	00000040 	ssnop
9d005124:	00001009 	jalr	v0,zero
9d005128:	00000000 	nop
9d00512c:	9d009078 	0x9d009078
9d005130:	ffffffff 	sdc3	$31,-1(ra)
	...
9d005140:	00011002 	srl	v0,at,0x0
9d005144:	00000000 	nop
9d005148:	9d009078 	0x9d009078
9d00514c:	ffffffff 	sdc3	$31,-1(ra)
	...
9d00515c:	00020002 	srl	zero,v0,0x0
9d005160:	00000000 	nop
9d005164:	9d009078 	0x9d009078
9d005168:	fffffffd 	sdc3	$31,-3(ra)
	...
9d005184:	a0000598 	sb	zero,1432(zero)
9d005188:	00000088 	0x88
9d00518c:	00000000 	nop
9d005190:	a0000000 	sb	zero,0(zero)
9d005194:	00000004 	sllv	zero,zero,zero
9d005198:	00000001 	movf	zero,zero,$fcc0
9d00519c:	a0000438 	sb	zero,1080(zero)
9d0051a0:	a00006fc 	sb	zero,1788(zero)
9d0051a4:	00000024 	and	zero,zero,zero
9d0051a8:	00000000 	nop
9d0051ac:	a0000004 	sb	zero,4(zero)
9d0051b0:	00000004 	sllv	zero,zero,zero
9d0051b4:	00000001 	movf	zero,zero,$fcc0
9d0051b8:	00000002 	srl	zero,zero,0x0
9d0051bc:	00000000 	nop
9d0051c0:	22222222 	addi	v0,s1,8738
9d0051c4:	22222222 	addi	v0,s1,8738

Disassembly of section .text._fconvert:

9d0051c8 <_fconvert>:
9d0051c8:	27bdfda8 	addiu	sp,sp,-600
9d0051cc:	afbf0254 	sw	ra,596(sp)
9d0051d0:	afbe0250 	sw	s8,592(sp)
9d0051d4:	afb7024c 	sw	s7,588(sp)
9d0051d8:	afb60248 	sw	s6,584(sp)
9d0051dc:	afb50244 	sw	s5,580(sp)
9d0051e0:	afb40240 	sw	s4,576(sp)
9d0051e4:	afb3023c 	sw	s3,572(sp)
9d0051e8:	afb20238 	sw	s2,568(sp)
9d0051ec:	afb10234 	sw	s1,564(sp)
9d0051f0:	afb00230 	sw	s0,560(sp)
9d0051f4:	8fb50268 	lw	s5,616(sp)
9d0051f8:	afa40258 	sw	a0,600(sp)
9d0051fc:	00a02021 	move	a0,a1
9d005200:	afa60260 	sw	a2,608(sp)
9d005204:	00e0b821 	move	s7,a3
9d005208:	97a3026c 	lhu	v1,620(sp)
9d00520c:	2402ffff 	li	v0,-1
9d005210:	12a2010c 	beq	s5,v0,9d005644 <_fconvert+0x47c>
9d005214:	afa30220 	sw	v1,544(sp)
9d005218:	2aa20028 	slti	v0,s5,40
9d00521c:	104000a3 	beqz	v0,9d0054ac <_fconvert+0x2e4>
9d005220:	afa00224 	sw	zero,548(sp)
9d005224:	a3a00011 	sb	zero,17(sp)
9d005228:	04810005 	bgez	a0,9d005240 <_fconvert+0x78>
9d00522c:	afa00228 	sw	zero,552(sp)
9d005230:	3c028000 	lui	v0,0x8000
9d005234:	00442026 	xor	a0,v0,a0
9d005238:	2403002d 	li	v1,45
9d00523c:	afa30228 	sw	v1,552(sp)
9d005240:	0f40205e 	jal	9d008178 <fpmodf>
9d005244:	27a5021c 	addiu	a1,sp,540
9d005248:	0040b021 	move	s6,v0
9d00524c:	8fbe021c 	lw	s8,540(sp)
9d005250:	00002821 	move	a1,zero
9d005254:	0f40217a 	jal	9d0085e8 <__eqsf2>
9d005258:	03c02021 	move	a0,s8
9d00525c:	10400119 	beqz	v0,9d0056c4 <_fconvert+0x4fc>
9d005260:	3c029d01 	lui	v0,0x9d01
9d005264:	3c109d01 	lui	s0,0x9d01
9d005268:	8e128c80 	lw	s2,-29568(s0)
9d00526c:	8c548c84 	lw	s4,-29564(v0)
9d005270:	00008821 	move	s1,zero
9d005274:	27b00210 	addiu	s0,sp,528
9d005278:	02409821 	move	s3,s2
9d00527c:	03c02021 	move	a0,s8
9d005280:	0f401b90 	jal	9d006e40 <__divsf3>
9d005284:	02402821 	move	a1,s2
9d005288:	00402021 	move	a0,v0
9d00528c:	0f40205e 	jal	9d008178 <fpmodf>
9d005290:	27a5021c 	addiu	a1,sp,540
9d005294:	00402021 	move	a0,v0
9d005298:	02802821 	move	a1,s4
9d00529c:	0f401af4 	jal	9d006bd0 <__addsf3>
9d0052a0:	afa20218 	sw	v0,536(sp)
9d0052a4:	00402021 	move	a0,v0
9d0052a8:	0f401c9d 	jal	9d007274 <__mulsf3>
9d0052ac:	02602821 	move	a1,s3
9d0052b0:	0f402273 	jal	9d0089cc <__fixsfsi>
9d0052b4:	00402021 	move	a0,v0
9d0052b8:	8fbe021c 	lw	s8,540(sp)
9d0052bc:	2610ffff 	addiu	s0,s0,-1
9d0052c0:	24420030 	addiu	v0,v0,48
9d0052c4:	03c02021 	move	a0,s8
9d0052c8:	00002821 	move	a1,zero
9d0052cc:	a2020001 	sb	v0,1(s0)
9d0052d0:	0f40217a 	jal	9d0085e8 <__eqsf2>
9d0052d4:	26310001 	addiu	s1,s1,1
9d0052d8:	1440ffe9 	bnez	v0,9d005280 <_fconvert+0xb8>
9d0052dc:	03c02021 	move	a0,s8
9d0052e0:	24020066 	li	v0,102
9d0052e4:	8fa30260 	lw	v1,608(sp)
9d0052e8:	14620038 	bne	v1,v0,9d0053cc <_fconvert+0x204>
9d0052ec:	00009821 	move	s3,zero
9d0052f0:	12200077 	beqz	s1,9d0054d0 <_fconvert+0x308>
9d0052f4:	24020030 	li	v0,48
9d0052f8:	26020001 	addiu	v0,s0,1
9d0052fc:	27a50211 	addiu	a1,sp,529
9d005300:	0045182b 	sltu	v1,v0,a1
9d005304:	106000fd 	beqz	v1,9d0056fc <_fconvert+0x534>
9d005308:	27b20012 	addiu	s2,sp,18
9d00530c:	02401821 	move	v1,s2
9d005310:	80440000 	lb	a0,0(v0)
9d005314:	24630001 	addiu	v1,v1,1
9d005318:	24420001 	addiu	v0,v0,1
9d00531c:	1445fffc 	bne	v0,a1,9d005310 <_fconvert+0x148>
9d005320:	a064ffff 	sb	a0,-1(v1)
9d005324:	03b08023 	subu	s0,sp,s0
9d005328:	26100210 	addiu	s0,s0,528
9d00532c:	02508021 	addu	s0,s2,s0
9d005330:	12a0006c 	beqz	s5,9d0054e4 <_fconvert+0x31c>
9d005334:	8fa30220 	lw	v1,544(sp)
9d005338:	02c02021 	move	a0,s6
9d00533c:	00002821 	move	a1,zero
9d005340:	26130001 	addiu	s3,s0,1
9d005344:	2402002e 	li	v0,46
9d005348:	0f40217a 	jal	9d0085e8 <__eqsf2>
9d00534c:	a2020000 	sb	v0,0(s0)
9d005350:	104000b4 	beqz	v0,9d005624 <_fconvert+0x45c>
9d005354:	26a3ffff 	addiu	v1,s5,-1
9d005358:	3c109d01 	lui	s0,0x9d01
9d00535c:	0b4014dd 	j	9d005374 <_fconvert+0x1ac>
9d005360:	8e118c80 	lw	s1,-29568(s0)
9d005364:	0f40217a 	jal	9d0085e8 <__eqsf2>
9d005368:	00000000 	nop
9d00536c:	104000ad 	beqz	v0,9d005624 <_fconvert+0x45c>
9d005370:	26a3ffff 	addiu	v1,s5,-1
9d005374:	02c02021 	move	a0,s6
9d005378:	0f401c9d 	jal	9d007274 <__mulsf3>
9d00537c:	02202821 	move	a1,s1
9d005380:	00402021 	move	a0,v0
9d005384:	0f40205e 	jal	9d008178 <fpmodf>
9d005388:	27a50218 	addiu	a1,sp,536
9d00538c:	0040b021 	move	s6,v0
9d005390:	8fa40218 	lw	a0,536(sp)
9d005394:	26730001 	addiu	s3,s3,1
9d005398:	0f402273 	jal	9d0089cc <__fixsfsi>
9d00539c:	26b5ffff 	addiu	s5,s5,-1
9d0053a0:	02c02021 	move	a0,s6
9d0053a4:	00002821 	move	a1,zero
9d0053a8:	24420030 	addiu	v0,v0,48
9d0053ac:	16a0ffed 	bnez	s5,9d005364 <_fconvert+0x19c>
9d0053b0:	a262ffff 	sb	v0,-1(s3)
9d0053b4:	02c02021 	move	a0,s6
9d0053b8:	0f40217a 	jal	9d0085e8 <__eqsf2>
9d0053bc:	00002821 	move	a1,zero
9d0053c0:	54400051 	bnezl	v0,9d005508 <_fconvert+0x340>
9d0053c4:	8e058c80 	lw	a1,-29568(s0)
9d0053c8:	02729823 	subu	s3,s3,s2
9d0053cc:	83a40011 	lb	a0,17(sp)
9d0053d0:	27a20011 	addiu	v0,sp,17
9d0053d4:	27a30012 	addiu	v1,sp,18
9d0053d8:	0064100a 	movz	v0,v1,a0
9d0053dc:	8fa30228 	lw	v1,552(sp)
9d0053e0:	1060002a 	beqz	v1,9d00548c <_fconvert+0x2c4>
9d0053e4:	8fa40220 	lw	a0,544(sp)
9d0053e8:	2452ffff 	addiu	s2,v0,-1
9d0053ec:	a043ffff 	sb	v1,-1(v0)
9d0053f0:	26730001 	addiu	s3,s3,1
9d0053f4:	8fa30220 	lw	v1,544(sp)
9d0053f8:	30710008 	andi	s1,v1,0x8
9d0053fc:	3231ffff 	andi	s1,s1,0xffff
9d005400:	8fa30224 	lw	v1,548(sp)
9d005404:	16200004 	bnez	s1,9d005418 <_fconvert+0x250>
9d005408:	02638021 	addu	s0,s3,v1
9d00540c:	0217102a 	slt	v0,s0,s7
9d005410:	1440005a 	bnez	v0,9d00557c <_fconvert+0x3b4>
9d005414:	8fa30220 	lw	v1,544(sp)
9d005418:	02402021 	move	a0,s2
9d00541c:	02602821 	move	a1,s3
9d005420:	0f4022ae 	jal	9d008ab8 <__sputn>
9d005424:	8fa60258 	lw	a2,600(sp)
9d005428:	2412ffff 	li	s2,-1
9d00542c:	10520008 	beq	v0,s2,9d005450 <_fconvert+0x288>
9d005430:	8fa30224 	lw	v1,548(sp)
9d005434:	14600071 	bnez	v1,9d0055fc <_fconvert+0x434>
9d005438:	8fa40258 	lw	a0,600(sp)
9d00543c:	12200005 	beqz	s1,9d005454 <_fconvert+0x28c>
9d005440:	0217102a 	slt	v0,s0,s7
9d005444:	0217102a 	slt	v0,s0,s7
9d005448:	14400081 	bnez	v0,9d005650 <_fconvert+0x488>
9d00544c:	8fa40258 	lw	a0,600(sp)
9d005450:	0217102a 	slt	v0,s0,s7
9d005454:	0202b80a 	movz	s7,s0,v0
9d005458:	02e01021 	move	v0,s7
9d00545c:	8fbf0254 	lw	ra,596(sp)
9d005460:	8fbe0250 	lw	s8,592(sp)
9d005464:	8fb7024c 	lw	s7,588(sp)
9d005468:	8fb60248 	lw	s6,584(sp)
9d00546c:	8fb50244 	lw	s5,580(sp)
9d005470:	8fb40240 	lw	s4,576(sp)
9d005474:	8fb3023c 	lw	s3,572(sp)
9d005478:	8fb20238 	lw	s2,568(sp)
9d00547c:	8fb10234 	lw	s1,564(sp)
9d005480:	8fb00230 	lw	s0,560(sp)
9d005484:	03e00008 	jr	ra
9d005488:	27bd0258 	addiu	sp,sp,600
9d00548c:	30830002 	andi	v1,a0,0x2
9d005490:	10600052 	beqz	v1,9d0055dc <_fconvert+0x414>
9d005494:	8fa40220 	lw	a0,544(sp)
9d005498:	2452ffff 	addiu	s2,v0,-1
9d00549c:	2403002b 	li	v1,43
9d0054a0:	a043ffff 	sb	v1,-1(v0)
9d0054a4:	0b4014fd 	j	9d0053f4 <_fconvert+0x22c>
9d0054a8:	26730001 	addiu	s3,s3,1
9d0054ac:	2403ffdf 	li	v1,-33
9d0054b0:	00c31824 	and	v1,a2,v1
9d0054b4:	24020047 	li	v0,71
9d0054b8:	1062007d 	beq	v1,v0,9d0056b0 <_fconvert+0x4e8>
9d0054bc:	8fa30220 	lw	v1,544(sp)
9d0054c0:	26b5ffd9 	addiu	s5,s5,-39
9d0054c4:	afb50224 	sw	s5,548(sp)
9d0054c8:	0b401489 	j	9d005224 <_fconvert+0x5c>
9d0054cc:	24150027 	li	s5,39
9d0054d0:	a3a20012 	sb	v0,18(sp)
9d0054d4:	27b00013 	addiu	s0,sp,19
9d0054d8:	16a0ff97 	bnez	s5,9d005338 <_fconvert+0x170>
9d0054dc:	27b20012 	addiu	s2,sp,18
9d0054e0:	8fa30220 	lw	v1,544(sp)
9d0054e4:	30620800 	andi	v0,v1,0x800
9d0054e8:	14400079 	bnez	v0,9d0056d0 <_fconvert+0x508>
9d0054ec:	02c02021 	move	a0,s6
9d0054f0:	0f40217a 	jal	9d0085e8 <__eqsf2>
9d0054f4:	00002821 	move	a1,zero
9d0054f8:	1040ffb3 	beqz	v0,9d0053c8 <_fconvert+0x200>
9d0054fc:	02009821 	move	s3,s0
9d005500:	3c109d01 	lui	s0,0x9d01
9d005504:	8e058c80 	lw	a1,-29568(s0)
9d005508:	02c02021 	move	a0,s6
9d00550c:	0f401c9d 	jal	9d007274 <__mulsf3>
9d005510:	2670ffff 	addiu	s0,s3,-1
9d005514:	00402021 	move	a0,v0
9d005518:	0f40205e 	jal	9d008178 <fpmodf>
9d00551c:	27a50214 	addiu	a1,sp,532
9d005520:	3c029d01 	lui	v0,0x9d01
9d005524:	8c448c88 	lw	a0,-29560(v0)
9d005528:	0f40217a 	jal	9d0085e8 <__eqsf2>
9d00552c:	8fa50214 	lw	a1,532(sp)
9d005530:	2404002e 	li	a0,46
9d005534:	0440000b 	bltz	v0,9d005564 <_fconvert+0x39c>
9d005538:	24050030 	li	a1,48
9d00553c:	0b4014f3 	j	9d0053cc <_fconvert+0x204>
9d005540:	02729823 	subu	s3,s3,s2
9d005544:	24420001 	addiu	v0,v0,1
9d005548:	7c021420 	seb	v0,v0
9d00554c:	2843003a 	slti	v1,v0,58
9d005550:	54600068 	bnezl	v1,9d0056f4 <_fconvert+0x52c>
9d005554:	a2020000 	sb	v0,0(s0)
9d005558:	1212006a 	beq	s0,s2,9d005704 <_fconvert+0x53c>
9d00555c:	a2050000 	sb	a1,0(s0)
9d005560:	2610ffff 	addiu	s0,s0,-1
9d005564:	82020000 	lb	v0,0(s0)
9d005568:	5444fff7 	bnel	v0,a0,9d005548 <_fconvert+0x380>
9d00556c:	24420001 	addiu	v0,v0,1
9d005570:	8202ffff 	lb	v0,-1(s0)
9d005574:	0b401551 	j	9d005544 <_fconvert+0x37c>
9d005578:	2610ffff 	addiu	s0,s0,-1
9d00557c:	30620004 	andi	v0,v1,0x4
9d005580:	8fa40258 	lw	a0,600(sp)
9d005584:	14400045 	bnez	v0,9d00569c <_fconvert+0x4d4>
9d005588:	02f02823 	subu	a1,s7,s0
9d00558c:	3c069d01 	lui	a2,0x9d01
9d005590:	0f4021a1 	jal	9d008684 <repl>
9d005594:	24c68c60 	addiu	a2,a2,-29600
9d005598:	2403ffff 	li	v1,-1
9d00559c:	1443ff9e 	bne	v0,v1,9d005418 <_fconvert+0x250>
9d0055a0:	0217102a 	slt	v0,s0,s7
9d0055a4:	0202b80a 	movz	s7,s0,v0
9d0055a8:	02e01021 	move	v0,s7
9d0055ac:	8fbf0254 	lw	ra,596(sp)
9d0055b0:	8fbe0250 	lw	s8,592(sp)
9d0055b4:	8fb7024c 	lw	s7,588(sp)
9d0055b8:	8fb60248 	lw	s6,584(sp)
9d0055bc:	8fb50244 	lw	s5,580(sp)
9d0055c0:	8fb40240 	lw	s4,576(sp)
9d0055c4:	8fb3023c 	lw	s3,572(sp)
9d0055c8:	8fb20238 	lw	s2,568(sp)
9d0055cc:	8fb10234 	lw	s1,564(sp)
9d0055d0:	8fb00230 	lw	s0,560(sp)
9d0055d4:	03e00008 	jr	ra
9d0055d8:	27bd0258 	addiu	sp,sp,600
9d0055dc:	30830001 	andi	v1,a0,0x1
9d0055e0:	1060ff84 	beqz	v1,9d0053f4 <_fconvert+0x22c>
9d0055e4:	00409021 	move	s2,v0
9d0055e8:	2452ffff 	addiu	s2,v0,-1
9d0055ec:	24030020 	li	v1,32
9d0055f0:	a043ffff 	sb	v1,-1(v0)
9d0055f4:	0b4014fd 	j	9d0053f4 <_fconvert+0x22c>
9d0055f8:	26730001 	addiu	s3,s3,1
9d0055fc:	8fa50224 	lw	a1,548(sp)
9d005600:	3c069d01 	lui	a2,0x9d01
9d005604:	0f4021a1 	jal	9d008684 <repl>
9d005608:	24c68c40 	addiu	a2,a2,-29632
9d00560c:	1052ff91 	beq	v0,s2,9d005454 <_fconvert+0x28c>
9d005610:	0217102a 	slt	v0,s0,s7
9d005614:	5620ff8c 	bnezl	s1,9d005448 <_fconvert+0x280>
9d005618:	0217102a 	slt	v0,s0,s7
9d00561c:	0b401516 	j	9d005458 <_fconvert+0x290>
9d005620:	0202b80a 	movz	s7,s0,v0
9d005624:	24630001 	addiu	v1,v1,1
9d005628:	02631821 	addu	v1,s3,v1
9d00562c:	24020030 	li	v0,48
9d005630:	26730001 	addiu	s3,s3,1
9d005634:	1663fffe 	bne	s3,v1,9d005630 <_fconvert+0x468>
9d005638:	a262ffff 	sb	v0,-1(s3)
9d00563c:	0b4014f3 	j	9d0053cc <_fconvert+0x204>
9d005640:	02729823 	subu	s3,s3,s2
9d005644:	afa00224 	sw	zero,548(sp)
9d005648:	0b401489 	j	9d005224 <_fconvert+0x5c>
9d00564c:	24150006 	li	s5,6
9d005650:	02f02823 	subu	a1,s7,s0
9d005654:	3c069d01 	lui	a2,0x9d01
9d005658:	0f4021a1 	jal	9d008684 <repl>
9d00565c:	24c68c60 	addiu	a2,a2,-29600
9d005660:	0217102a 	slt	v0,s0,s7
9d005664:	0202b80a 	movz	s7,s0,v0
9d005668:	02e01021 	move	v0,s7
9d00566c:	8fbf0254 	lw	ra,596(sp)
9d005670:	8fbe0250 	lw	s8,592(sp)
9d005674:	8fb7024c 	lw	s7,588(sp)
9d005678:	8fb60248 	lw	s6,584(sp)
9d00567c:	8fb50244 	lw	s5,580(sp)
9d005680:	8fb40240 	lw	s4,576(sp)
9d005684:	8fb3023c 	lw	s3,572(sp)
9d005688:	8fb20238 	lw	s2,568(sp)
9d00568c:	8fb10234 	lw	s1,564(sp)
9d005690:	8fb00230 	lw	s0,560(sp)
9d005694:	03e00008 	jr	ra
9d005698:	27bd0258 	addiu	sp,sp,600
9d00569c:	3c069d01 	lui	a2,0x9d01
9d0056a0:	0f4021a1 	jal	9d008684 <repl>
9d0056a4:	24c68c40 	addiu	a2,a2,-29632
9d0056a8:	0b401567 	j	9d00559c <_fconvert+0x3d4>
9d0056ac:	2403ffff 	li	v1,-1
9d0056b0:	30620800 	andi	v0,v1,0x800
9d0056b4:	5440ff83 	bnezl	v0,9d0054c4 <_fconvert+0x2fc>
9d0056b8:	26b5ffd9 	addiu	s5,s5,-39
9d0056bc:	0b401489 	j	9d005224 <_fconvert+0x5c>
9d0056c0:	24150027 	li	s5,39
9d0056c4:	00008821 	move	s1,zero
9d0056c8:	0b4014b8 	j	9d0052e0 <_fconvert+0x118>
9d0056cc:	27b00210 	addiu	s0,sp,528
9d0056d0:	00002821 	move	a1,zero
9d0056d4:	26130001 	addiu	s3,s0,1
9d0056d8:	2402002e 	li	v0,46
9d0056dc:	0f40217a 	jal	9d0085e8 <__eqsf2>
9d0056e0:	a2020000 	sb	v0,0(s0)
9d0056e4:	5440ff87 	bnezl	v0,9d005504 <_fconvert+0x33c>
9d0056e8:	3c109d01 	lui	s0,0x9d01
9d0056ec:	0b4014f3 	j	9d0053cc <_fconvert+0x204>
9d0056f0:	02729823 	subu	s3,s3,s2
9d0056f4:	0b4014f3 	j	9d0053cc <_fconvert+0x204>
9d0056f8:	02729823 	subu	s3,s3,s2
9d0056fc:	0b4014cc 	j	9d005330 <_fconvert+0x168>
9d005700:	02408021 	move	s0,s2
9d005704:	24020031 	li	v0,49
9d005708:	a3a20011 	sb	v0,17(sp)
9d00570c:	27b20011 	addiu	s2,sp,17
9d005710:	0b4014f3 	j	9d0053cc <_fconvert+0x204>
9d005714:	02729823 	subu	s3,s3,s2

Disassembly of section .text:

9d005718 <__umoddi3>:
9d005718:	00c04021 	move	t0,a2
9d00571c:	00804821 	move	t1,a0
9d005720:	14e0003b 	bnez	a3,9d005810 <__umoddi3+0xf8>
9d005724:	00a01821 	move	v1,a1
9d005728:	00a6102b 	sltu	v0,a1,a2
9d00572c:	10400048 	beqz	v0,9d005850 <__umoddi3+0x138>
9d005730:	70c21020 	clz	v0,a2
9d005734:	50400008 	beqzl	v0,9d005758 <__umoddi3+0x40>
9d005738:	00083402 	srl	a2,t0,0x10
9d00573c:	00021823 	negu	v1,v0
9d005740:	00452804 	sllv	a1,a1,v0
9d005744:	00641806 	srlv	v1,a0,v1
9d005748:	00464004 	sllv	t0,a2,v0
9d00574c:	00651825 	or	v1,v1,a1
9d005750:	00444804 	sllv	t1,a0,v0
9d005754:	00083402 	srl	a2,t0,0x10
9d005758:	0066001b 	divu	zero,v1,a2
9d00575c:	00c001f4 	teq	a2,zero,0x7
9d005760:	00002010 	mfhi	a0
9d005764:	00005812 	mflo	t3
9d005768:	310cffff 	andi	t4,t0,0xffff
9d00576c:	00095402 	srl	t2,t1,0x10
9d005770:	716c5802 	mul	t3,t3,t4
9d005774:	00042400 	sll	a0,a0,0x10
9d005778:	008a5025 	or	t2,a0,t2
9d00577c:	014b682b 	sltu	t5,t2,t3
9d005780:	0066001b 	divu	zero,v1,a2
9d005784:	00c001f4 	teq	a2,zero,0x7
9d005788:	51a00009 	beqzl	t5,9d0057b0 <__umoddi3+0x98>
9d00578c:	014b5023 	subu	t2,t2,t3
9d005790:	01485021 	addu	t2,t2,t0
9d005794:	0148182b 	sltu	v1,t2,t0
9d005798:	54600005 	bnezl	v1,9d0057b0 <__umoddi3+0x98>
9d00579c:	014b5023 	subu	t2,t2,t3
9d0057a0:	014b202b 	sltu	a0,t2,t3
9d0057a4:	01481821 	addu	v1,t2,t0
9d0057a8:	0064500b 	movn	t2,v1,a0
9d0057ac:	014b5023 	subu	t2,t2,t3
9d0057b0:	3123ffff 	andi	v1,t1,0xffff
9d0057b4:	0146001b 	divu	zero,t2,a2
9d0057b8:	00c001f4 	teq	a2,zero,0x7
9d0057bc:	00004810 	mfhi	t1
9d0057c0:	00002012 	mflo	a0
9d0057c4:	708c2002 	mul	a0,a0,t4
9d0057c8:	00094c00 	sll	t1,t1,0x10
9d0057cc:	01234825 	or	t1,t1,v1
9d0057d0:	0124182b 	sltu	v1,t1,a0
9d0057d4:	0146001b 	divu	zero,t2,a2
9d0057d8:	00c001f4 	teq	a2,zero,0x7
9d0057dc:	50600009 	beqzl	v1,9d005804 <__umoddi3+0xec>
9d0057e0:	01244823 	subu	t1,t1,a0
9d0057e4:	01284821 	addu	t1,t1,t0
9d0057e8:	0128182b 	sltu	v1,t1,t0
9d0057ec:	54600005 	bnezl	v1,9d005804 <__umoddi3+0xec>
9d0057f0:	01244823 	subu	t1,t1,a0
9d0057f4:	0124182b 	sltu	v1,t1,a0
9d0057f8:	01284021 	addu	t0,t1,t0
9d0057fc:	0103480b 	movn	t1,t0,v1
9d005800:	01244823 	subu	t1,t1,a0
9d005804:	00491006 	srlv	v0,t1,v0
9d005808:	03e00008 	jr	ra
9d00580c:	00001821 	move	v1,zero
9d005810:	00a7102b 	sltu	v0,a1,a3
9d005814:	14400047 	bnez	v0,9d005934 <__umoddi3+0x21c>
9d005818:	70ea5020 	clz	t2,a3
9d00581c:	15400048 	bnez	t2,9d005940 <__umoddi3+0x228>
9d005820:	240b0020 	li	t3,32
9d005824:	00e5102b 	sltu	v0,a3,a1
9d005828:	14400005 	bnez	v0,9d005840 <__umoddi3+0x128>
9d00582c:	00861023 	subu	v0,a0,a2
9d005830:	0086402b 	sltu	t0,a0,a2
9d005834:	15000089 	bnez	t0,9d005a5c <__umoddi3+0x344>
9d005838:	00801021 	move	v0,a0
9d00583c:	00861023 	subu	v0,a0,a2
9d005840:	00a72823 	subu	a1,a1,a3
9d005844:	0082202b 	sltu	a0,a0,v0
9d005848:	03e00008 	jr	ra
9d00584c:	00a41823 	subu	v1,a1,a0
9d005850:	14c00006 	bnez	a2,9d00586c <__umoddi3+0x154>
9d005854:	71021020 	clz	v0,t0
9d005858:	24020001 	li	v0,1
9d00585c:	0046001b 	divu	zero,v0,a2
9d005860:	00c001f4 	teq	a2,zero,0x7
9d005864:	00004012 	mflo	t0
9d005868:	71021020 	clz	v0,t0
9d00586c:	5440007d 	bnezl	v0,9d005a64 <__umoddi3+0x34c>
9d005870:	00484004 	sllv	t0,t0,v0
9d005874:	00a82823 	subu	a1,a1,t0
9d005878:	00081c02 	srl	v1,t0,0x10
9d00587c:	3107ffff 	andi	a3,t0,0xffff
9d005880:	00092402 	srl	a0,t1,0x10
9d005884:	00a3001b 	divu	zero,a1,v1
9d005888:	006001f4 	teq	v1,zero,0x7
9d00588c:	00005010 	mfhi	t2
9d005890:	00003012 	mflo	a2
9d005894:	70c73002 	mul	a2,a2,a3
9d005898:	000a5400 	sll	t2,t2,0x10
9d00589c:	01442025 	or	a0,t2,a0
9d0058a0:	0086502b 	sltu	t2,a0,a2
9d0058a4:	00a3001b 	divu	zero,a1,v1
9d0058a8:	006001f4 	teq	v1,zero,0x7
9d0058ac:	51400009 	beqzl	t2,9d0058d4 <__umoddi3+0x1bc>
9d0058b0:	00862023 	subu	a0,a0,a2
9d0058b4:	00882021 	addu	a0,a0,t0
9d0058b8:	0088282b 	sltu	a1,a0,t0
9d0058bc:	54a00005 	bnezl	a1,9d0058d4 <__umoddi3+0x1bc>
9d0058c0:	00862023 	subu	a0,a0,a2
9d0058c4:	0086502b 	sltu	t2,a0,a2
9d0058c8:	00882821 	addu	a1,a0,t0
9d0058cc:	00aa200b 	movn	a0,a1,t2
9d0058d0:	00862023 	subu	a0,a0,a2
9d0058d4:	3126ffff 	andi	a2,t1,0xffff
9d0058d8:	0083001b 	divu	zero,a0,v1
9d0058dc:	006001f4 	teq	v1,zero,0x7
9d0058e0:	00004810 	mfhi	t1
9d0058e4:	00002812 	mflo	a1
9d0058e8:	70a72802 	mul	a1,a1,a3
9d0058ec:	00094c00 	sll	t1,t1,0x10
9d0058f0:	01264825 	or	t1,t1,a2
9d0058f4:	0125302b 	sltu	a2,t1,a1
9d0058f8:	0083001b 	divu	zero,a0,v1
9d0058fc:	006001f4 	teq	v1,zero,0x7
9d005900:	50c00009 	beqzl	a2,9d005928 <__umoddi3+0x210>
9d005904:	01254823 	subu	t1,t1,a1
9d005908:	01284821 	addu	t1,t1,t0
9d00590c:	0128182b 	sltu	v1,t1,t0
9d005910:	54600005 	bnezl	v1,9d005928 <__umoddi3+0x210>
9d005914:	01254823 	subu	t1,t1,a1
9d005918:	0125182b 	sltu	v1,t1,a1
9d00591c:	01284021 	addu	t0,t1,t0
9d005920:	0103480b 	movn	t1,t0,v1
9d005924:	01254823 	subu	t1,t1,a1
9d005928:	00491006 	srlv	v0,t1,v0
9d00592c:	03e00008 	jr	ra
9d005930:	00001821 	move	v1,zero
9d005934:	00801021 	move	v0,a0
9d005938:	03e00008 	jr	ra
9d00593c:	00a01821 	move	v1,a1
9d005940:	016a5823 	subu	t3,t3,t2
9d005944:	01473804 	sllv	a3,a3,t2
9d005948:	01661006 	srlv	v0,a2,t3
9d00594c:	00473825 	or	a3,v0,a3
9d005950:	01656806 	srlv	t5,a1,t3
9d005954:	00074c02 	srl	t1,a3,0x10
9d005958:	01a9001b 	divu	zero,t5,t1
9d00595c:	012001f4 	teq	t1,zero,0x7
9d005960:	00006010 	mfhi	t4
9d005964:	00001812 	mflo	v1
9d005968:	30eeffff 	andi	t6,a3,0xffff
9d00596c:	01452804 	sllv	a1,a1,t2
9d005970:	01641006 	srlv	v0,a0,t3
9d005974:	00451025 	or	v0,v0,a1
9d005978:	00022c02 	srl	a1,v0,0x10
9d00597c:	01463004 	sllv	a2,a2,t2
9d005980:	00004012 	mflo	t0
9d005984:	706e7802 	mul	t7,v1,t6
9d005988:	000c6400 	sll	t4,t4,0x10
9d00598c:	01856025 	or	t4,t4,a1
9d005990:	018f282b 	sltu	a1,t4,t7
9d005994:	01a9001b 	divu	zero,t5,t1
9d005998:	012001f4 	teq	t1,zero,0x7
9d00599c:	10a0000a 	beqz	a1,9d0059c8 <__umoddi3+0x2b0>
9d0059a0:	01442004 	sllv	a0,a0,t2
9d0059a4:	01876021 	addu	t4,t4,a3
9d0059a8:	0187282b 	sltu	a1,t4,a3
9d0059ac:	14a00006 	bnez	a1,9d0059c8 <__umoddi3+0x2b0>
9d0059b0:	2468ffff 	addiu	t0,v1,-1
9d0059b4:	018f282b 	sltu	a1,t4,t7
9d0059b8:	50a00004 	beqzl	a1,9d0059cc <__umoddi3+0x2b4>
9d0059bc:	018f6023 	subu	t4,t4,t7
9d0059c0:	2468fffe 	addiu	t0,v1,-2
9d0059c4:	01876021 	addu	t4,t4,a3
9d0059c8:	018f6023 	subu	t4,t4,t7
9d0059cc:	3042ffff 	andi	v0,v0,0xffff
9d0059d0:	0189001b 	divu	zero,t4,t1
9d0059d4:	012001f4 	teq	t1,zero,0x7
9d0059d8:	00002810 	mfhi	a1
9d0059dc:	00001812 	mflo	v1
9d0059e0:	00006812 	mflo	t5
9d0059e4:	706e7002 	mul	t6,v1,t6
9d0059e8:	00052c00 	sll	a1,a1,0x10
9d0059ec:	00a21025 	or	v0,a1,v0
9d0059f0:	004e282b 	sltu	a1,v0,t6
9d0059f4:	0189001b 	divu	zero,t4,t1
9d0059f8:	012001f4 	teq	t1,zero,0x7
9d0059fc:	50a00006 	beqzl	a1,9d005a18 <__umoddi3+0x300>
9d005a00:	00084400 	sll	t0,t0,0x10
9d005a04:	00471021 	addu	v0,v0,a3
9d005a08:	0047282b 	sltu	a1,v0,a3
9d005a0c:	10a0004c 	beqz	a1,9d005b40 <__umoddi3+0x428>
9d005a10:	246dffff 	addiu	t5,v1,-1
9d005a14:	00084400 	sll	t0,t0,0x10
9d005a18:	01a84025 	or	t0,t5,t0
9d005a1c:	004e1023 	subu	v0,v0,t6
9d005a20:	01060019 	multu	t0,a2
9d005a24:	00004810 	mfhi	t1
9d005a28:	0049182b 	sltu	v1,v0,t1
9d005a2c:	1460003e 	bnez	v1,9d005b28 <__umoddi3+0x410>
9d005a30:	00004012 	mflo	t0
9d005a34:	1049004b 	beq	v0,t1,9d005b64 <__umoddi3+0x44c>
9d005a38:	00491823 	subu	v1,v0,t1
9d005a3c:	00003012 	mflo	a2
9d005a40:	00863023 	subu	a2,a0,a2
9d005a44:	0086202b 	sltu	a0,a0,a2
9d005a48:	00641823 	subu	v1,v1,a0
9d005a4c:	01631004 	sllv	v0,v1,t3
9d005a50:	01463006 	srlv	a2,a2,t2
9d005a54:	00461025 	or	v0,v0,a2
9d005a58:	01431806 	srlv	v1,v1,t2
9d005a5c:	03e00008 	jr	ra
9d005a60:	00000000 	nop
9d005a64:	24090020 	li	t1,32
9d005a68:	01224823 	subu	t1,t1,v0
9d005a6c:	01255006 	srlv	t2,a1,t1
9d005a70:	00081c02 	srl	v1,t0,0x10
9d005a74:	0143001b 	divu	zero,t2,v1
9d005a78:	006001f4 	teq	v1,zero,0x7
9d005a7c:	00003010 	mfhi	a2
9d005a80:	00005812 	mflo	t3
9d005a84:	3107ffff 	andi	a3,t0,0xffff
9d005a88:	00452804 	sllv	a1,a1,v0
9d005a8c:	01244806 	srlv	t1,a0,t1
9d005a90:	01252825 	or	a1,t1,a1
9d005a94:	00056402 	srl	t4,a1,0x10
9d005a98:	00444804 	sllv	t1,a0,v0
9d005a9c:	71675802 	mul	t3,t3,a3
9d005aa0:	00063400 	sll	a2,a2,0x10
9d005aa4:	01863025 	or	a2,t4,a2
9d005aa8:	00cb202b 	sltu	a0,a2,t3
9d005aac:	0143001b 	divu	zero,t2,v1
9d005ab0:	006001f4 	teq	v1,zero,0x7
9d005ab4:	50800006 	beqzl	a0,9d005ad0 <__umoddi3+0x3b8>
9d005ab8:	00cb3023 	subu	a2,a2,t3
9d005abc:	00c83021 	addu	a2,a2,t0
9d005ac0:	00c8202b 	sltu	a0,a2,t0
9d005ac4:	10800024 	beqz	a0,9d005b58 <__umoddi3+0x440>
9d005ac8:	00cb502b 	sltu	t2,a2,t3
9d005acc:	00cb3023 	subu	a2,a2,t3
9d005ad0:	30aaffff 	andi	t2,a1,0xffff
9d005ad4:	00c3001b 	divu	zero,a2,v1
9d005ad8:	006001f4 	teq	v1,zero,0x7
9d005adc:	00002010 	mfhi	a0
9d005ae0:	00002812 	mflo	a1
9d005ae4:	70a72802 	mul	a1,a1,a3
9d005ae8:	00042400 	sll	a0,a0,0x10
9d005aec:	008a2025 	or	a0,a0,t2
9d005af0:	0085502b 	sltu	t2,a0,a1
9d005af4:	00c3001b 	divu	zero,a2,v1
9d005af8:	006001f4 	teq	v1,zero,0x7
9d005afc:	5140ff60 	beqzl	t2,9d005880 <__umoddi3+0x168>
9d005b00:	00852823 	subu	a1,a0,a1
9d005b04:	00882021 	addu	a0,a0,t0
9d005b08:	0088302b 	sltu	a2,a0,t0
9d005b0c:	54c0ff5c 	bnezl	a2,9d005880 <__umoddi3+0x168>
9d005b10:	00852823 	subu	a1,a0,a1
9d005b14:	0085502b 	sltu	t2,a0,a1
9d005b18:	00883021 	addu	a2,a0,t0
9d005b1c:	00ca200b 	movn	a0,a2,t2
9d005b20:	0b401620 	j	9d005880 <__umoddi3+0x168>
9d005b24:	00852823 	subu	a1,a0,a1
9d005b28:	01063023 	subu	a2,t0,a2
9d005b2c:	01271823 	subu	v1,t1,a3
9d005b30:	0106402b 	sltu	t0,t0,a2
9d005b34:	00681823 	subu	v1,v1,t0
9d005b38:	0b401690 	j	9d005a40 <__umoddi3+0x328>
9d005b3c:	00431823 	subu	v1,v0,v1
9d005b40:	004e282b 	sltu	a1,v0,t6
9d005b44:	50a0ffb4 	beqzl	a1,9d005a18 <__umoddi3+0x300>
9d005b48:	00084400 	sll	t0,t0,0x10
9d005b4c:	246dfffe 	addiu	t5,v1,-2
9d005b50:	0b401685 	j	9d005a14 <__umoddi3+0x2fc>
9d005b54:	00471021 	addu	v0,v0,a3
9d005b58:	00c82021 	addu	a0,a2,t0
9d005b5c:	0b4016b3 	j	9d005acc <__umoddi3+0x3b4>
9d005b60:	008a300b 	movn	a2,a0,t2
9d005b64:	0088182b 	sltu	v1,a0,t0
9d005b68:	5460fff0 	bnezl	v1,9d005b2c <__umoddi3+0x414>
9d005b6c:	01063023 	subu	a2,t0,a2
9d005b70:	00003012 	mflo	a2
9d005b74:	0b401690 	j	9d005a40 <__umoddi3+0x328>
9d005b78:	00001821 	move	v1,zero

9d005b7c <__udivdi3>:
9d005b7c:	00c04021 	move	t0,a2
9d005b80:	00801021 	move	v0,a0
9d005b84:	14e0003f 	bnez	a3,9d005c84 <__udivdi3+0x108>
9d005b88:	00a04821 	move	t1,a1
9d005b8c:	00a6182b 	sltu	v1,a1,a2
9d005b90:	10600047 	beqz	v1,9d005cb0 <__udivdi3+0x134>
9d005b94:	70c31820 	clz	v1,a2
9d005b98:	50600008 	beqzl	v1,9d005bbc <__udivdi3+0x40>
9d005b9c:	00081c02 	srl	v1,t0,0x10
9d005ba0:	00034823 	negu	t1,v1
9d005ba4:	00652804 	sllv	a1,a1,v1
9d005ba8:	01244806 	srlv	t1,a0,t1
9d005bac:	00664004 	sllv	t0,a2,v1
9d005bb0:	01254825 	or	t1,t1,a1
9d005bb4:	00641004 	sllv	v0,a0,v1
9d005bb8:	00081c02 	srl	v1,t0,0x10
9d005bbc:	0123001b 	divu	zero,t1,v1
9d005bc0:	006001f4 	teq	v1,zero,0x7
9d005bc4:	00006010 	mfhi	t4
9d005bc8:	00005812 	mflo	t3
9d005bcc:	310affff 	andi	t2,t0,0xffff
9d005bd0:	00022402 	srl	a0,v0,0x10
9d005bd4:	00003012 	mflo	a2
9d005bd8:	716a3802 	mul	a3,t3,t2
9d005bdc:	000c6400 	sll	t4,t4,0x10
9d005be0:	01842025 	or	a0,t4,a0
9d005be4:	0087602b 	sltu	t4,a0,a3
9d005be8:	0123001b 	divu	zero,t1,v1
9d005bec:	006001f4 	teq	v1,zero,0x7
9d005bf0:	1180000b 	beqz	t4,9d005c20 <__udivdi3+0xa4>
9d005bf4:	00872823 	subu	a1,a0,a3
9d005bf8:	00882021 	addu	a0,a0,t0
9d005bfc:	0088282b 	sltu	a1,a0,t0
9d005c00:	14a00006 	bnez	a1,9d005c1c <__udivdi3+0xa0>
9d005c04:	2566ffff 	addiu	a2,t3,-1
9d005c08:	0087282b 	sltu	a1,a0,a3
9d005c0c:	10a00004 	beqz	a1,9d005c20 <__udivdi3+0xa4>
9d005c10:	00872823 	subu	a1,a0,a3
9d005c14:	2566fffe 	addiu	a2,t3,-2
9d005c18:	00882021 	addu	a0,a0,t0
9d005c1c:	00872823 	subu	a1,a0,a3
9d005c20:	3042ffff 	andi	v0,v0,0xffff
9d005c24:	00a3001b 	divu	zero,a1,v1
9d005c28:	006001f4 	teq	v1,zero,0x7
9d005c2c:	00004810 	mfhi	t1
9d005c30:	00003812 	mflo	a3
9d005c34:	00002012 	mflo	a0
9d005c38:	70ea5002 	mul	t2,a3,t2
9d005c3c:	00094c00 	sll	t1,t1,0x10
9d005c40:	01221025 	or	v0,t1,v0
9d005c44:	004a482b 	sltu	t1,v0,t2
9d005c48:	00a3001b 	divu	zero,a1,v1
9d005c4c:	006001f4 	teq	v1,zero,0x7
9d005c50:	51200009 	beqzl	t1,9d005c78 <__udivdi3+0xfc>
9d005c54:	00061400 	sll	v0,a2,0x10
9d005c58:	00481021 	addu	v0,v0,t0
9d005c5c:	0048402b 	sltu	t0,v0,t0
9d005c60:	15000004 	bnez	t0,9d005c74 <__udivdi3+0xf8>
9d005c64:	24e4ffff 	addiu	a0,a3,-1
9d005c68:	004a502b 	sltu	t2,v0,t2
9d005c6c:	24e7fffe 	addiu	a3,a3,-2
9d005c70:	00ea200b 	movn	a0,a3,t2
9d005c74:	00061400 	sll	v0,a2,0x10
9d005c78:	00821025 	or	v0,a0,v0
9d005c7c:	03e00008 	jr	ra
9d005c80:	00001821 	move	v1,zero
9d005c84:	00a7102b 	sltu	v0,a1,a3
9d005c88:	14400044 	bnez	v0,9d005d9c <__udivdi3+0x220>
9d005c8c:	70e84020 	clz	t0,a3
9d005c90:	55000045 	bnezl	t0,9d005da8 <__udivdi3+0x22c>
9d005c94:	24020020 	li	v0,32
9d005c98:	00e5282b 	sltu	a1,a3,a1
9d005c9c:	14a000c8 	bnez	a1,9d005fc0 <__udivdi3+0x444>
9d005ca0:	0086302b 	sltu	a2,a0,a2
9d005ca4:	38c20001 	xori	v0,a2,0x1
9d005ca8:	03e00008 	jr	ra
9d005cac:	00001821 	move	v1,zero
9d005cb0:	14c00006 	bnez	a2,9d005ccc <__udivdi3+0x150>
9d005cb4:	71031820 	clz	v1,t0
9d005cb8:	24030001 	li	v1,1
9d005cbc:	0066001b 	divu	zero,v1,a2
9d005cc0:	00c001f4 	teq	a2,zero,0x7
9d005cc4:	00004012 	mflo	t0
9d005cc8:	71031820 	clz	v1,t0
9d005ccc:	5460007b 	bnezl	v1,9d005ebc <__udivdi3+0x340>
9d005cd0:	00684004 	sllv	t0,t0,v1
9d005cd4:	00a82023 	subu	a0,a1,t0
9d005cd8:	00083c02 	srl	a3,t0,0x10
9d005cdc:	310bffff 	andi	t3,t0,0xffff
9d005ce0:	24030001 	li	v1,1
9d005ce4:	00023402 	srl	a2,v0,0x10
9d005ce8:	0087001b 	divu	zero,a0,a3
9d005cec:	00e001f4 	teq	a3,zero,0x7
9d005cf0:	00006810 	mfhi	t5
9d005cf4:	00006012 	mflo	t4
9d005cf8:	00004812 	mflo	t1
9d005cfc:	718b5002 	mul	t2,t4,t3
9d005d00:	000d6c00 	sll	t5,t5,0x10
9d005d04:	01a63025 	or	a2,t5,a2
9d005d08:	00ca682b 	sltu	t5,a2,t2
9d005d0c:	0087001b 	divu	zero,a0,a3
9d005d10:	00e001f4 	teq	a3,zero,0x7
9d005d14:	11a00009 	beqz	t5,9d005d3c <__udivdi3+0x1c0>
9d005d18:	00ca2823 	subu	a1,a2,t2
9d005d1c:	00c83021 	addu	a2,a2,t0
9d005d20:	00c8202b 	sltu	a0,a2,t0
9d005d24:	14800004 	bnez	a0,9d005d38 <__udivdi3+0x1bc>
9d005d28:	2589ffff 	addiu	t1,t4,-1
9d005d2c:	00ca202b 	sltu	a0,a2,t2
9d005d30:	548000a6 	bnezl	a0,9d005fcc <__udivdi3+0x450>
9d005d34:	2589fffe 	addiu	t1,t4,-2
9d005d38:	00ca2823 	subu	a1,a2,t2
9d005d3c:	3042ffff 	andi	v0,v0,0xffff
9d005d40:	00a7001b 	divu	zero,a1,a3
9d005d44:	00e001f4 	teq	a3,zero,0x7
9d005d48:	00005010 	mfhi	t2
9d005d4c:	00003012 	mflo	a2
9d005d50:	00002012 	mflo	a0
9d005d54:	70cb5802 	mul	t3,a2,t3
9d005d58:	000a5400 	sll	t2,t2,0x10
9d005d5c:	01421025 	or	v0,t2,v0
9d005d60:	004b502b 	sltu	t2,v0,t3
9d005d64:	00a7001b 	divu	zero,a1,a3
9d005d68:	00e001f4 	teq	a3,zero,0x7
9d005d6c:	51400009 	beqzl	t2,9d005d94 <__udivdi3+0x218>
9d005d70:	00091400 	sll	v0,t1,0x10
9d005d74:	00481021 	addu	v0,v0,t0
9d005d78:	0048402b 	sltu	t0,v0,t0
9d005d7c:	15000004 	bnez	t0,9d005d90 <__udivdi3+0x214>
9d005d80:	24c4ffff 	addiu	a0,a2,-1
9d005d84:	004b582b 	sltu	t3,v0,t3
9d005d88:	24c6fffe 	addiu	a2,a2,-2
9d005d8c:	00cb200b 	movn	a0,a2,t3
9d005d90:	00091400 	sll	v0,t1,0x10
9d005d94:	03e00008 	jr	ra
9d005d98:	00821025 	or	v0,a0,v0
9d005d9c:	00001821 	move	v1,zero
9d005da0:	03e00008 	jr	ra
9d005da4:	00001021 	move	v0,zero
9d005da8:	00481023 	subu	v0,v0,t0
9d005dac:	01073804 	sllv	a3,a3,t0
9d005db0:	00461806 	srlv	v1,a2,v0
9d005db4:	00673825 	or	a3,v1,a3
9d005db8:	00455006 	srlv	t2,a1,v0
9d005dbc:	00071c02 	srl	v1,a3,0x10
9d005dc0:	0143001b 	divu	zero,t2,v1
9d005dc4:	006001f4 	teq	v1,zero,0x7
9d005dc8:	00004810 	mfhi	t1
9d005dcc:	00006812 	mflo	t5
9d005dd0:	30ebffff 	andi	t3,a3,0xffff
9d005dd4:	01052804 	sllv	a1,a1,t0
9d005dd8:	00441006 	srlv	v0,a0,v0
9d005ddc:	00452825 	or	a1,v0,a1
9d005de0:	00057402 	srl	t6,a1,0x10
9d005de4:	00001012 	mflo	v0
9d005de8:	71ab6002 	mul	t4,t5,t3
9d005dec:	00094c00 	sll	t1,t1,0x10
9d005df0:	012e4825 	or	t1,t1,t6
9d005df4:	012c702b 	sltu	t6,t1,t4
9d005df8:	0143001b 	divu	zero,t2,v1
9d005dfc:	006001f4 	teq	v1,zero,0x7
9d005e00:	11c0000a 	beqz	t6,9d005e2c <__udivdi3+0x2b0>
9d005e04:	01063004 	sllv	a2,a2,t0
9d005e08:	01274821 	addu	t1,t1,a3
9d005e0c:	0127502b 	sltu	t2,t1,a3
9d005e10:	15400006 	bnez	t2,9d005e2c <__udivdi3+0x2b0>
9d005e14:	25a2ffff 	addiu	v0,t5,-1
9d005e18:	012c502b 	sltu	t2,t1,t4
9d005e1c:	51400004 	beqzl	t2,9d005e30 <__udivdi3+0x2b4>
9d005e20:	012c4823 	subu	t1,t1,t4
9d005e24:	25a2fffe 	addiu	v0,t5,-2
9d005e28:	01274821 	addu	t1,t1,a3
9d005e2c:	012c4823 	subu	t1,t1,t4
9d005e30:	30a5ffff 	andi	a1,a1,0xffff
9d005e34:	0123001b 	divu	zero,t1,v1
9d005e38:	006001f4 	teq	v1,zero,0x7
9d005e3c:	00006810 	mfhi	t5
9d005e40:	00006012 	mflo	t4
9d005e44:	00005012 	mflo	t2
9d005e48:	718b5802 	mul	t3,t4,t3
9d005e4c:	000d6c00 	sll	t5,t5,0x10
9d005e50:	01a52825 	or	a1,t5,a1
9d005e54:	00ab682b 	sltu	t5,a1,t3
9d005e58:	0123001b 	divu	zero,t1,v1
9d005e5c:	006001f4 	teq	v1,zero,0x7
9d005e60:	51a0000b 	beqzl	t5,9d005e90 <__udivdi3+0x314>
9d005e64:	00021400 	sll	v0,v0,0x10
9d005e68:	00a72821 	addu	a1,a1,a3
9d005e6c:	00a7182b 	sltu	v1,a1,a3
9d005e70:	14600006 	bnez	v1,9d005e8c <__udivdi3+0x310>
9d005e74:	258affff 	addiu	t2,t4,-1
9d005e78:	00ab182b 	sltu	v1,a1,t3
9d005e7c:	50600004 	beqzl	v1,9d005e90 <__udivdi3+0x314>
9d005e80:	00021400 	sll	v0,v0,0x10
9d005e84:	258afffe 	addiu	t2,t4,-2
9d005e88:	00a72821 	addu	a1,a1,a3
9d005e8c:	00021400 	sll	v0,v0,0x10
9d005e90:	01421025 	or	v0,t2,v0
9d005e94:	00ab2823 	subu	a1,a1,t3
9d005e98:	00460019 	multu	v0,a2
9d005e9c:	00003810 	mfhi	a3
9d005ea0:	00a7182b 	sltu	v1,a1,a3
9d005ea4:	14600044 	bnez	v1,9d005fb8 <__udivdi3+0x43c>
9d005ea8:	00003012 	mflo	a2
9d005eac:	10a7003f 	beq	a1,a3,9d005fac <__udivdi3+0x430>
9d005eb0:	01042004 	sllv	a0,a0,t0
9d005eb4:	03e00008 	jr	ra
9d005eb8:	00001821 	move	v1,zero
9d005ebc:	24020020 	li	v0,32
9d005ec0:	00431023 	subu	v0,v0,v1
9d005ec4:	00454806 	srlv	t1,a1,v0
9d005ec8:	00083c02 	srl	a3,t0,0x10
9d005ecc:	0127001b 	divu	zero,t1,a3
9d005ed0:	00e001f4 	teq	a3,zero,0x7
9d005ed4:	00003010 	mfhi	a2
9d005ed8:	00006012 	mflo	t4
9d005edc:	310bffff 	andi	t3,t0,0xffff
9d005ee0:	00652804 	sllv	a1,a1,v1
9d005ee4:	00441006 	srlv	v0,a0,v0
9d005ee8:	00452825 	or	a1,v0,a1
9d005eec:	00056c02 	srl	t5,a1,0x10
9d005ef0:	00641004 	sllv	v0,a0,v1
9d005ef4:	00001812 	mflo	v1
9d005ef8:	718b5002 	mul	t2,t4,t3
9d005efc:	00063400 	sll	a2,a2,0x10
9d005f00:	01a63025 	or	a2,t5,a2
9d005f04:	00ca202b 	sltu	a0,a2,t2
9d005f08:	0127001b 	divu	zero,t1,a3
9d005f0c:	00e001f4 	teq	a3,zero,0x7
9d005f10:	5080000b 	beqzl	a0,9d005f40 <__udivdi3+0x3c4>
9d005f14:	00ca3023 	subu	a2,a2,t2
9d005f18:	00c83021 	addu	a2,a2,t0
9d005f1c:	00c8202b 	sltu	a0,a2,t0
9d005f20:	14800006 	bnez	a0,9d005f3c <__udivdi3+0x3c0>
9d005f24:	2583ffff 	addiu	v1,t4,-1
9d005f28:	00ca202b 	sltu	a0,a2,t2
9d005f2c:	50800004 	beqzl	a0,9d005f40 <__udivdi3+0x3c4>
9d005f30:	00ca3023 	subu	a2,a2,t2
9d005f34:	2583fffe 	addiu	v1,t4,-2
9d005f38:	00c83021 	addu	a2,a2,t0
9d005f3c:	00ca3023 	subu	a2,a2,t2
9d005f40:	30acffff 	andi	t4,a1,0xffff
9d005f44:	00c7001b 	divu	zero,a2,a3
9d005f48:	00e001f4 	teq	a3,zero,0x7
9d005f4c:	00002010 	mfhi	a0
9d005f50:	00005012 	mflo	t2
9d005f54:	00004812 	mflo	t1
9d005f58:	714b2802 	mul	a1,t2,t3
9d005f5c:	00042400 	sll	a0,a0,0x10
9d005f60:	008c2025 	or	a0,a0,t4
9d005f64:	0085602b 	sltu	t4,a0,a1
9d005f68:	00c7001b 	divu	zero,a2,a3
9d005f6c:	00e001f4 	teq	a3,zero,0x7
9d005f70:	5180000b 	beqzl	t4,9d005fa0 <__udivdi3+0x424>
9d005f74:	00031c00 	sll	v1,v1,0x10
9d005f78:	00882021 	addu	a0,a0,t0
9d005f7c:	0088302b 	sltu	a2,a0,t0
9d005f80:	14c00006 	bnez	a2,9d005f9c <__udivdi3+0x420>
9d005f84:	2549ffff 	addiu	t1,t2,-1
9d005f88:	0085302b 	sltu	a2,a0,a1
9d005f8c:	50c00004 	beqzl	a2,9d005fa0 <__udivdi3+0x424>
9d005f90:	00031c00 	sll	v1,v1,0x10
9d005f94:	2549fffe 	addiu	t1,t2,-2
9d005f98:	00882021 	addu	a0,a0,t0
9d005f9c:	00031c00 	sll	v1,v1,0x10
9d005fa0:	00852023 	subu	a0,a0,a1
9d005fa4:	0b401739 	j	9d005ce4 <__udivdi3+0x168>
9d005fa8:	01231825 	or	v1,t1,v1
9d005fac:	0086302b 	sltu	a2,a0,a2
9d005fb0:	10c0ffc0 	beqz	a2,9d005eb4 <__udivdi3+0x338>
9d005fb4:	00000000 	nop
9d005fb8:	0b4017ad 	j	9d005eb4 <__udivdi3+0x338>
9d005fbc:	2442ffff 	addiu	v0,v0,-1
9d005fc0:	00001821 	move	v1,zero
9d005fc4:	03e00008 	jr	ra
9d005fc8:	24020001 	li	v0,1
9d005fcc:	0b40174e 	j	9d005d38 <__udivdi3+0x1bc>
9d005fd0:	00c83021 	addu	a2,a2,t0

Disassembly of section .text.libm:

9d005fd4 <__mchp_powf>:
9d005fd4:	27bdffc8 	addiu	sp,sp,-56
9d005fd8:	afbf0000 	sw	ra,0(sp)
9d005fdc:	000455c2 	srl	t2,a0,0x17
9d005fe0:	314a00ff 	andi	t2,t2,0xff
9d005fe4:	00056dc2 	srl	t5,a1,0x17
9d005fe8:	31ad00ff 	andi	t5,t5,0xff
9d005fec:	3c088000 	lui	t0,0x8000
9d005ff0:	00044a00 	sll	t1,a0,0x8
9d005ff4:	01284825 	or	t1,t1,t0
9d005ff8:	00056200 	sll	t4,a1,0x8
9d005ffc:	01886025 	or	t4,t4,t0
9d006000:	00a87024 	and	t6,a1,t0
9d006004:	00882024 	and	a0,a0,t0
9d006008:	254fffff 	addiu	t7,t2,-1
9d00600c:	2de100fe 	sltiu	at,t7,254
9d006010:	102000b2 	beqz	at,9d0062dc <AspecA>
9d006014:	00000000 	nop

9d006018 <Alab1>:
9d006018:	25afffff 	addiu	t7,t5,-1
9d00601c:	2de100fe 	sltiu	at,t7,254
9d006020:	102000cc 	beqz	at,9d006354 <AspecB>
9d006024:	00000000 	nop
9d006028:	10800010 	beqz	a0,9d00606c <i1>
9d00602c:	25a7ff82 	addiu	a3,t5,-126
9d006030:	18e000d5 	blez	a3,9d006388 <Anan>
9d006034:	00000000 	nop
9d006038:	2ce10020 	sltiu	at,a3,32
9d00603c:	14200003 	bnez	at,9d00604c <i2>
9d006040:	00000000 	nop
9d006044:	10000009 	b	9d00606c <i1>
9d006048:	24040000 	li	a0,0

9d00604c <i2>:
9d00604c:	00ec7804 	sllv	t7,t4,a3
9d006050:	15e000cd 	bnez	t7,9d006388 <Anan>
9d006054:	00000000 	nop
9d006058:	24e2ffff 	addiu	v0,a3,-1
9d00605c:	004c7804 	sllv	t7,t4,v0
9d006060:	15e00002 	bnez	t7,9d00606c <i1>
9d006064:	00000000 	nop
9d006068:	24040000 	li	a0,0

9d00606c <i1>:
9d00606c:	2ce1000c 	sltiu	at,a3,12
9d006070:	10200004 	beqz	at,9d006084 <i4>
9d006074:	00000000 	nop
9d006078:	00ec7804 	sllv	t7,t4,a3
9d00607c:	11e00054 	beqz	t7,9d0061d0 <Apow20>
9d006080:	00000000 	nop

9d006084 <i4>:
9d006084:	afa40004 	sw	a0,4(sp)
9d006088:	afa50008 	sw	a1,8(sp)
9d00608c:	afa70010 	sw	a3,16(sp)
9d006090:	afa80014 	sw	t0,20(sp)
9d006094:	afac0024 	sw	t4,36(sp)
9d006098:	afad0028 	sw	t5,40(sp)
9d00609c:	afae002c 	sw	t6,44(sp)
9d0060a0:	00092025 	or	a0,zero,t1
9d0060a4:	000a2825 	or	a1,zero,t2
9d0060a8:	0f4019a4 	jal	9d006690 <.LFE4>
9d0060ac:	000b3025 	or	a2,zero,t3
9d0060b0:	00185825 	or	t3,zero,t8
9d0060b4:	00035025 	or	t2,zero,v1
9d0060b8:	00024825 	or	t1,zero,v0
9d0060bc:	8fae002c 	lw	t6,44(sp)
9d0060c0:	8fad0028 	lw	t5,40(sp)
9d0060c4:	8fac0024 	lw	t4,36(sp)
9d0060c8:	8fa80014 	lw	t0,20(sp)
9d0060cc:	8fa70010 	lw	a3,16(sp)
9d0060d0:	8fa50008 	lw	a1,8(sp)
9d0060d4:	8fa40004 	lw	a0,4(sp)
9d0060d8:	254fff82 	addiu	t7,t2,-126
9d0060dc:	01af6821 	addu	t5,t5,t7
9d0060e0:	01cb7026 	xor	t6,t6,t3
9d0060e4:	012c0019 	multu	t1,t4
9d0060e8:	00003012 	mflo	a2
9d0060ec:	00006010 	mfhi	t4
9d0060f0:	19800006 	blez	t4,9d00610c <i5>
9d0060f4:	00000000 	nop
9d0060f8:	00c0782a 	slt	t7,a2,zero
9d0060fc:	00c63021 	addu	a2,a2,a2
9d006100:	018c6021 	addu	t4,t4,t4
9d006104:	018f6021 	addu	t4,t4,t7
9d006108:	25adffff 	addiu	t5,t5,-1

9d00610c <i5>:
9d00610c:	00c0782a 	slt	t7,a2,zero
9d006110:	00c63021 	addu	a2,a2,a2
9d006114:	018f6021 	addu	t4,t4,t7
9d006118:	afa40004 	sw	a0,4(sp)
9d00611c:	afa50008 	sw	a1,8(sp)
9d006120:	afa6000c 	sw	a2,12(sp)
9d006124:	afa70010 	sw	a3,16(sp)
9d006128:	afa80014 	sw	t0,20(sp)
9d00612c:	afac0024 	sw	t4,36(sp)
9d006130:	afad0028 	sw	t5,40(sp)
9d006134:	afae002c 	sw	t6,44(sp)
9d006138:	000c2025 	or	a0,zero,t4
9d00613c:	000d2825 	or	a1,zero,t5
9d006140:	0f401c1c 	jal	9d007070 <fpexexp>
9d006144:	000e3025 	or	a2,zero,t6
9d006148:	00185825 	or	t3,zero,t8
9d00614c:	00035025 	or	t2,zero,v1
9d006150:	00024825 	or	t1,zero,v0
9d006154:	8fae002c 	lw	t6,44(sp)
9d006158:	8fad0028 	lw	t5,40(sp)
9d00615c:	8fac0024 	lw	t4,36(sp)
9d006160:	8fa80014 	lw	t0,20(sp)
9d006164:	8fa70010 	lw	a3,16(sp)
9d006168:	8fa6000c 	lw	a2,12(sp)
9d00616c:	8fa50008 	lw	a1,8(sp)
9d006170:	8fa40004 	lw	a0,4(sp)

9d006174 <Aret2>:
9d006174:	254fffff 	addiu	t7,t2,-1
9d006178:	2de100fe 	sltiu	at,t7,254
9d00617c:	1420000c 	bnez	at,9d0061b0 <i6>
9d006180:	00000000 	nop
9d006184:	1d40007d 	bgtz	t2,9d00637c <Ainf>
9d006188:	00000000 	nop
9d00618c:	24060009 	li	a2,9
9d006190:	00ca3023 	subu	a2,a2,t2
9d006194:	2cc10020 	sltiu	at,a2,32
9d006198:	14200002 	bnez	at,9d0061a4 <L1>
9d00619c:	00000000 	nop
9d0061a0:	34090000 	li	t1,0x0

9d0061a4 <L1>:
9d0061a4:	00c94806 	srlv	t1,t1,a2
9d0061a8:	10000006 	b	9d0061c4 <A999>
9d0061ac:	00891025 	or	v0,a0,t1

9d0061b0 <i6>:
9d0061b0:	00094840 	sll	t1,t1,0x1
9d0061b4:	00094a42 	srl	t1,t1,0x9
9d0061b8:	000a7dc0 	sll	t7,t2,0x17
9d0061bc:	012f4825 	or	t1,t1,t7
9d0061c0:	00891025 	or	v0,a0,t1

9d0061c4 <A999>:
9d0061c4:	8fbf0000 	lw	ra,0(sp)
9d0061c8:	03e00008 	jr	ra
9d0061cc:	27bd0038 	addiu	sp,sp,56

9d0061d0 <Apow20>:
9d0061d0:	240f0020 	li	t7,32
9d0061d4:	01e77823 	subu	t7,t7,a3
9d0061d8:	01ec4006 	srlv	t0,t4,t7
9d0061dc:	00096025 	or	t4,zero,t1
9d0061e0:	000a6825 	or	t5,zero,t2
9d0061e4:	310f0001 	andi	t7,t0,0x1
9d0061e8:	15e00003 	bnez	t7,9d0061f8 <i7>
9d0061ec:	00000000 	nop
9d0061f0:	3c098000 	lui	t1,0x8000
9d0061f4:	240a007f 	li	t2,127

9d0061f8 <i7>:
9d0061f8:	00084042 	srl	t0,t0,0x1

9d0061fc <b8>:
9d0061fc:	11000016 	beqz	t0,9d006258 <i8>
9d006200:	00000000 	nop
9d006204:	000d6840 	sll	t5,t5,0x1
9d006208:	25adff82 	addiu	t5,t5,-126
9d00620c:	018c0019 	multu	t4,t4
9d006210:	00006010 	mfhi	t4
9d006214:	19800003 	blez	t4,9d006224 <i9>
9d006218:	00000000 	nop
9d00621c:	000c6040 	sll	t4,t4,0x1
9d006220:	25adffff 	addiu	t5,t5,-1

9d006224 <i9>:
9d006224:	310f0001 	andi	t7,t0,0x1
9d006228:	11e00009 	beqz	t7,9d006250 <i10>
9d00622c:	00000000 	nop
9d006230:	25afff82 	addiu	t7,t5,-126
9d006234:	014f5021 	addu	t2,t2,t7
9d006238:	012c0019 	multu	t1,t4
9d00623c:	00004810 	mfhi	t1
9d006240:	19200003 	blez	t1,9d006250 <i10>
9d006244:	00000000 	nop
9d006248:	00094840 	sll	t1,t1,0x1
9d00624c:	254affff 	addiu	t2,t2,-1

9d006250 <i10>:
9d006250:	1000ffea 	b	9d0061fc <b8>
9d006254:	00084042 	srl	t0,t0,0x1

9d006258 <i8>:
9d006258:	11c0ffc6 	beqz	t6,9d006174 <Aret2>
9d00625c:	00000000 	nop
9d006260:	3c0c4000 	lui	t4,0x4000
9d006264:	240f00fe 	li	t7,254
9d006268:	01ea5023 	subu	t2,t7,t2
9d00626c:	00094025 	or	t0,zero,t1
9d006270:	00086c02 	srl	t5,t0,0x10
9d006274:	01a001f4 	teq	t5,zero,0x7
9d006278:	018d001b 	divu	zero,t4,t5
9d00627c:	00003012 	mflo	a2
9d006280:	00006010 	mfhi	t4
9d006284:	3107ffff 	andi	a3,t0,0xffff
9d006288:	00e60019 	multu	a3,a2
9d00628c:	00007012 	mflo	t6
9d006290:	000c6400 	sll	t4,t4,0x10
9d006294:	018e782b 	sltu	t7,t4,t6
9d006298:	11e00006 	beqz	t7,9d0062b4 <i13>
9d00629c:	018e6023 	subu	t4,t4,t6

9d0062a0 <b14>:
9d0062a0:	24c6ffff 	addiu	a2,a2,-1
9d0062a4:	01886021 	addu	t4,t4,t0
9d0062a8:	0188082b 	sltu	at,t4,t0
9d0062ac:	1020fffc 	beqz	at,9d0062a0 <b14>
9d0062b0:	00000000 	nop

9d0062b4 <i13>:
9d0062b4:	01a001f4 	teq	t5,zero,0x7
9d0062b8:	018d001b 	divu	zero,t4,t5
9d0062bc:	00004812 	mflo	t1
9d0062c0:	00067c00 	sll	t7,a2,0x10
9d0062c4:	012f4821 	addu	t1,t1,t7
9d0062c8:	1920ffaa 	blez	t1,9d006174 <Aret2>
9d0062cc:	00000000 	nop
9d0062d0:	00094840 	sll	t1,t1,0x1
9d0062d4:	1000ffa7 	b	9d006174 <Aret2>
9d0062d8:	254affff 	addiu	t2,t2,-1

9d0062dc <AspecA>:
9d0062dc:	15400008 	bnez	t2,9d006300 <i16>
9d0062e0:	00000000 	nop
9d0062e4:	01294821 	addu	t1,t1,t1
9d0062e8:	11200005 	beqz	t1,9d006300 <i16>
9d0062ec:	00000000 	nop
9d0062f0:	71263020 	clz	a2,t1
9d0062f4:	01465023 	subu	t2,t2,a2
9d0062f8:	1000ff47 	b	9d006018 <Alab1>
9d0062fc:	00c94804 	sllv	t1,t1,a2

9d006300 <i16>:
9d006300:	00a57821 	addu	t7,a1,a1
9d006304:	11e00020 	beqz	t7,9d006388 <Anan>
9d006308:	00000000 	nop
9d00630c:	15400008 	bnez	t2,9d006330 <i18>
9d006310:	00000000 	nop
9d006314:	240100ff 	li	at,255
9d006318:	11a1001b 	beq	t5,at,9d006388 <Anan>
9d00631c:	00000000 	nop
9d006320:	04a00016 	bltz	a1,9d00637c <Ainf>
9d006324:	00000000 	nop
9d006328:	10000019 	b	9d006390 <Azer>
9d00632c:	00000000 	nop

9d006330 <i18>:
9d006330:	01297821 	addu	t7,t1,t1
9d006334:	15e00014 	bnez	t7,9d006388 <Anan>
9d006338:	00000000 	nop
9d00633c:	2da1007f 	sltiu	at,t5,127
9d006340:	1020ff35 	beqz	at,9d006018 <Alab1>
9d006344:	00000000 	nop
9d006348:	240d007f 	li	t5,127
9d00634c:	1000ff32 	b	9d006018 <Alab1>
9d006350:	240cffff 	li	t4,-1

9d006354 <AspecB>:
9d006354:	15a00005 	bnez	t5,9d00636c <i20>
9d006358:	018c6021 	addu	t4,t4,t4
9d00635c:	1180000e 	beqz	t4,9d006398 <Aone>
9d006360:	00000000 	nop
9d006364:	1080000c 	beqz	a0,9d006398 <Aone>
9d006368:	00000000 	nop

9d00636c <i20>:
9d00636c:	15800006 	bnez	t4,9d006388 <Anan>
9d006370:	00000000 	nop
9d006374:	1000000a 	b	9d0063a0 <Aovr>
9d006378:	00000000 	nop

9d00637c <Ainf>:
9d00637c:	3c017f80 	lui	at,0x7f80
9d006380:	1000ff90 	b	9d0061c4 <A999>
9d006384:	00811025 	or	v0,a0,at

9d006388 <Anan>:
9d006388:	1000ff8e 	b	9d0061c4 <A999>
9d00638c:	3c02ffc0 	lui	v0,0xffc0

9d006390 <Azer>:
9d006390:	1000ff8c 	b	9d0061c4 <A999>
9d006394:	00041025 	or	v0,zero,a0

9d006398 <Aone>:
9d006398:	1000ff8a 	b	9d0061c4 <A999>
9d00639c:	3c023f80 	lui	v0,0x3f80

9d0063a0 <Aovr>:
9d0063a0:	1480fff9 	bnez	a0,9d006388 <Anan>
9d0063a4:	00000000 	nop
9d0063a8:	04a10006 	bgez	a1,9d0063c4 <i21>
9d0063ac:	00000000 	nop
9d0063b0:	2941007f 	slti	at,t2,127
9d0063b4:	1020fff6 	beqz	at,9d006390 <Azer>
9d0063b8:	00000000 	nop
9d0063bc:	1000ffef 	b	9d00637c <Ainf>
9d0063c0:	00000000 	nop

9d0063c4 <i21>:
9d0063c4:	2941007f 	slti	at,t2,127
9d0063c8:	1020ffec 	beqz	at,9d00637c <Ainf>
9d0063cc:	00000000 	nop
9d0063d0:	1000ffef 	b	9d006390 <Azer>
9d0063d4:	00000000 	nop
9d0063d8:	00000000 	nop

Disassembly of section .text:

9d0063dc <NU32_Startup>:

// Perform startup routines:
//  Make NU32_LED1 and NU32_LED2 pins outputs (NU32_USER is by default an input)
//  Initialize the serial port - UART3 (no interrupt) 
//  Enable interrupts
void NU32_Startup() {
9d0063dc:	27bdfff8 	addiu	sp,sp,-8
9d0063e0:	afbf0004 	sw	ra,4(sp)
9d0063e4:	afbe0000 	sw	s8,0(sp)
9d0063e8:	03a0f021 	move	s8,sp
  // disable interrupts
  __builtin_disable_interrupts();
9d0063ec:	41626000 	di	v0
9d0063f0:	000000c0 	ehb
9d0063f4:	00000000 	nop
  // see Chapter 2 "CPU for Devices with M4K Core" of the PIC32 reference manual
  // most of the other bits have prescribed values
  // microchip does not provide a _CP0_SET_CONFIG macro, so we directly use
  // the compiler built-in command _mtc0
  // to disable cache, use 0xa4210582 
  __builtin_mtc0(_CP0_CONFIG, _CP0_CONFIG_SELECT, 0xa4210583); 
9d0063f8:	3c02a421 	lui	v0,0xa421
9d0063fc:	34420583 	ori	v0,v0,0x583
9d006400:	40828000 	mtc0	v0,c0_config
9d006404:	000000c0 	ehb
  
  // set the prefectch cache wait state to 2, as per the
  // electrical characteristics data sheet
  CHECONbits.PFMWS = 0x2;   
9d006408:	3c03bf88 	lui	v1,0xbf88
9d00640c:	8c624000 	lw	v0,16384(v1)
9d006410:	24040002 	li	a0,2
9d006414:	7c821004 	ins	v0,a0,0x0,0x3
9d006418:	ac624000 	sw	v0,16384(v1)

  //enable prefetch for cacheable and noncacheable memory
  CHECONbits.PREFEN = 0x3; 
9d00641c:	3c03bf88 	lui	v1,0xbf88
9d006420:	8c624000 	lw	v0,16384(v1)
9d006424:	24040003 	li	a0,3
9d006428:	7c822904 	ins	v0,a0,0x4,0x2
9d00642c:	ac624000 	sw	v0,16384(v1)

  // 0 data RAM access wait states
  BMXCONbits.BMXWSDRM = 0x0;
9d006430:	3c03bf88 	lui	v1,0xbf88
9d006434:	8c622000 	lw	v0,8192(v1)
9d006438:	7c023184 	ins	v0,zero,0x6,0x1
9d00643c:	ac622000 	sw	v0,8192(v1)
  
  // enable multi vector interrupts
  INTCONbits.MVEC = 0x1;
9d006440:	3c03bf88 	lui	v1,0xbf88
9d006444:	8c621000 	lw	v0,4096(v1)
9d006448:	24040001 	li	a0,1
9d00644c:	7c826304 	ins	v0,a0,0xc,0x1
9d006450:	ac621000 	sw	v0,4096(v1)

  // disable JTAG to get B10, B11, B12 and B13 back
  DDPCONbits.JTAGEN = 0;
9d006454:	3c03bf81 	lui	v1,0xbf81
9d006458:	9062f200 	lbu	v0,-3584(v1)
9d00645c:	7c0218c4 	ins	v0,zero,0x3,0x1
9d006460:	a062f200 	sb	v0,-3584(v1)

  TRISFCLR = 0x0003;  // Make F0 and F1 outputs (LED1 and LED2)
9d006464:	3c02bf88 	lui	v0,0xbf88
9d006468:	24030003 	li	v1,3
9d00646c:	ac436144 	sw	v1,24900(v0)
  NU32_LED1 = 1;      // LED1 is off
9d006470:	3c03bf88 	lui	v1,0xbf88
9d006474:	90626160 	lbu	v0,24928(v1)
9d006478:	24040001 	li	a0,1
9d00647c:	7c820004 	ins	v0,a0,0x0,0x1
9d006480:	a0626160 	sb	v0,24928(v1)
  NU32_LED2 = 0;      // LED2 is on
9d006484:	3c03bf88 	lui	v1,0xbf88
9d006488:	90626160 	lbu	v0,24928(v1)
9d00648c:	7c020844 	ins	v0,zero,0x1,0x1
9d006490:	a0626160 	sb	v0,24928(v1)

  // turn on UART3 without an interrupt
  U3MODEbits.BRGH = 0; // set baud to NU32_DESIRED_BAUD
9d006494:	3c03bf80 	lui	v1,0xbf80
9d006498:	94626400 	lhu	v0,25600(v1)
9d00649c:	7c0218c4 	ins	v0,zero,0x3,0x1
9d0064a0:	a4626400 	sh	v0,25600(v1)
  U3BRG = ((NU32_SYS_FREQ / NU32_DESIRED_BAUD) / 16) - 1;
9d0064a4:	3c02bf80 	lui	v0,0xbf80
9d0064a8:	24030014 	li	v1,20
9d0064ac:	ac436440 	sw	v1,25664(v0)

  // 8 bit, no parity bit, and 1 stop bit (8N1 setup)
  U3MODEbits.PDSEL = 0;
9d0064b0:	3c03bf80 	lui	v1,0xbf80
9d0064b4:	94626400 	lhu	v0,25600(v1)
9d0064b8:	7c021044 	ins	v0,zero,0x1,0x2
9d0064bc:	a4626400 	sh	v0,25600(v1)
  U3MODEbits.STSEL = 0;
9d0064c0:	3c03bf80 	lui	v1,0xbf80
9d0064c4:	94626400 	lhu	v0,25600(v1)
9d0064c8:	7c020004 	ins	v0,zero,0x0,0x1
9d0064cc:	a4626400 	sh	v0,25600(v1)

  // configure TX & RX pins as output & input pins
  U3STAbits.UTXEN = 1;
9d0064d0:	3c03bf80 	lui	v1,0xbf80
9d0064d4:	8c626410 	lw	v0,25616(v1)
9d0064d8:	24040001 	li	a0,1
9d0064dc:	7c825284 	ins	v0,a0,0xa,0x1
9d0064e0:	ac626410 	sw	v0,25616(v1)
  U3STAbits.URXEN = 1;
9d0064e4:	3c03bf80 	lui	v1,0xbf80
9d0064e8:	8c626410 	lw	v0,25616(v1)
9d0064ec:	24040001 	li	a0,1
9d0064f0:	7c826304 	ins	v0,a0,0xc,0x1
9d0064f4:	ac626410 	sw	v0,25616(v1)
  // configure hardware flow control using RTS and CTS
  U3MODEbits.UEN = 2;
9d0064f8:	3c03bf80 	lui	v1,0xbf80
9d0064fc:	94626400 	lhu	v0,25600(v1)
9d006500:	24040002 	li	a0,2
9d006504:	7c824a04 	ins	v0,a0,0x8,0x2
9d006508:	a4626400 	sh	v0,25600(v1)

  // enable the uart
  U3MODEbits.ON = 1;
9d00650c:	3c03bf80 	lui	v1,0xbf80
9d006510:	94626400 	lhu	v0,25600(v1)
9d006514:	24040001 	li	a0,1
9d006518:	7c827bc4 	ins	v0,a0,0xf,0x1
9d00651c:	a4626400 	sh	v0,25600(v1)

  __builtin_enable_interrupts();
9d006520:	41626020 	ei	v0
}
9d006524:	03c0e821 	move	sp,s8
9d006528:	8fbf0004 	lw	ra,4(sp)
9d00652c:	8fbe0000 	lw	s8,0(sp)
9d006530:	27bd0008 	addiu	sp,sp,8
9d006534:	03e00008 	jr	ra
9d006538:	00000000 	nop

9d00653c <NU32_ReadUART3>:

// Read from UART3
// block other functions until you get a '\r' or '\n'
// send the pointer to your char array and the number of elements in the array
void NU32_ReadUART3(char * message, int maxLength) {
9d00653c:	27bdffe8 	addiu	sp,sp,-24
9d006540:	afbe0014 	sw	s8,20(sp)
9d006544:	03a0f021 	move	s8,sp
9d006548:	afc40018 	sw	a0,24(s8)
9d00654c:	afc5001c 	sw	a1,28(s8)
  char data = 0;
9d006550:	a3c00008 	sb	zero,8(s8)
  int complete = 0, num_bytes = 0;
9d006554:	afc00000 	sw	zero,0(s8)
9d006558:	afc00004 	sw	zero,4(s8)
  // loop until you get a '\r' or '\n'
  while (!complete) {
9d00655c:	0b40197b 	j	9d0065ec <NU32_ReadUART3+0xb0>
9d006560:	00000000 	nop
    if (U3STAbits.URXDA) { // if data is available
9d006564:	3c02bf80 	lui	v0,0xbf80
9d006568:	8c426410 	lw	v0,25616(v0)
9d00656c:	30420001 	andi	v0,v0,0x1
9d006570:	1040001e 	beqz	v0,9d0065ec <NU32_ReadUART3+0xb0>
9d006574:	00000000 	nop
      data = U3RXREG;      // read the data
9d006578:	3c02bf80 	lui	v0,0xbf80
9d00657c:	8c426430 	lw	v0,25648(v0)
9d006580:	a3c20008 	sb	v0,8(s8)
      if ((data == '\n') || (data == '\r')) {
9d006584:	83c30008 	lb	v1,8(s8)
9d006588:	2402000a 	li	v0,10
9d00658c:	10620005 	beq	v1,v0,9d0065a4 <NU32_ReadUART3+0x68>
9d006590:	00000000 	nop
9d006594:	83c30008 	lb	v1,8(s8)
9d006598:	2402000d 	li	v0,13
9d00659c:	14620005 	bne	v1,v0,9d0065b4 <NU32_ReadUART3+0x78>
9d0065a0:	00000000 	nop
        complete = 1;
9d0065a4:	24020001 	li	v0,1
9d0065a8:	afc20000 	sw	v0,0(s8)
9d0065ac:	0b40197b 	j	9d0065ec <NU32_ReadUART3+0xb0>
9d0065b0:	00000000 	nop
      } else {
        message[num_bytes] = data;
9d0065b4:	8fc20004 	lw	v0,4(s8)
9d0065b8:	8fc30018 	lw	v1,24(s8)
9d0065bc:	00621021 	addu	v0,v1,v0
9d0065c0:	93c30008 	lbu	v1,8(s8)
9d0065c4:	a0430000 	sb	v1,0(v0)
        ++num_bytes;
9d0065c8:	8fc20004 	lw	v0,4(s8)
9d0065cc:	24420001 	addiu	v0,v0,1
9d0065d0:	afc20004 	sw	v0,4(s8)
        // roll over if the array is too small
        if (num_bytes >= maxLength) {
9d0065d4:	8fc30004 	lw	v1,4(s8)
9d0065d8:	8fc2001c 	lw	v0,28(s8)
9d0065dc:	0062102a 	slt	v0,v1,v0
9d0065e0:	14400002 	bnez	v0,9d0065ec <NU32_ReadUART3+0xb0>
9d0065e4:	00000000 	nop
          num_bytes = 0;
9d0065e8:	afc00004 	sw	zero,4(s8)
// send the pointer to your char array and the number of elements in the array
void NU32_ReadUART3(char * message, int maxLength) {
  char data = 0;
  int complete = 0, num_bytes = 0;
  // loop until you get a '\r' or '\n'
  while (!complete) {
9d0065ec:	8fc20000 	lw	v0,0(s8)
9d0065f0:	1040ffdc 	beqz	v0,9d006564 <NU32_ReadUART3+0x28>
9d0065f4:	00000000 	nop
        }
      }
    }
  }
  // end the string
  message[num_bytes] = '\0';
9d0065f8:	8fc20004 	lw	v0,4(s8)
9d0065fc:	8fc30018 	lw	v1,24(s8)
9d006600:	00621021 	addu	v0,v1,v0
9d006604:	a0400000 	sb	zero,0(v0)
}
9d006608:	03c0e821 	move	sp,s8
9d00660c:	8fbe0014 	lw	s8,20(sp)
9d006610:	27bd0018 	addiu	sp,sp,24
9d006614:	03e00008 	jr	ra
9d006618:	00000000 	nop

9d00661c <NU32_WriteUART3>:

// Write a character array using UART3
void NU32_WriteUART3(const char * string) {
9d00661c:	27bdfff8 	addiu	sp,sp,-8
9d006620:	afbe0004 	sw	s8,4(sp)
9d006624:	03a0f021 	move	s8,sp
9d006628:	afc40008 	sw	a0,8(s8)
  while (*string != '\0') {
9d00662c:	0b40199b 	j	9d00666c <NU32_WriteUART3+0x50>
9d006630:	00000000 	nop
    while (U3STAbits.UTXBF) {
9d006634:	00000000 	nop
9d006638:	3c02bf80 	lui	v0,0xbf80
9d00663c:	8c426410 	lw	v0,25616(v0)
9d006640:	30420200 	andi	v0,v0,0x200
9d006644:	1440fffc 	bnez	v0,9d006638 <NU32_WriteUART3+0x1c>
9d006648:	00000000 	nop
      ; // wait until tx buffer isn't full
    }
    U3TXREG = *string;
9d00664c:	8fc20008 	lw	v0,8(s8)
9d006650:	80420000 	lb	v0,0(v0)
9d006654:	00401821 	move	v1,v0
9d006658:	3c02bf80 	lui	v0,0xbf80
9d00665c:	ac436420 	sw	v1,25632(v0)
    ++string;
9d006660:	8fc20008 	lw	v0,8(s8)
9d006664:	24420001 	addiu	v0,v0,1
9d006668:	afc20008 	sw	v0,8(s8)
  message[num_bytes] = '\0';
}

// Write a character array using UART3
void NU32_WriteUART3(const char * string) {
  while (*string != '\0') {
9d00666c:	8fc20008 	lw	v0,8(s8)
9d006670:	80420000 	lb	v0,0(v0)
9d006674:	1440ffef 	bnez	v0,9d006634 <NU32_WriteUART3+0x18>
9d006678:	00000000 	nop
      ; // wait until tx buffer isn't full
    }
    U3TXREG = *string;
    ++string;
  }
}
9d00667c:	03c0e821 	move	sp,s8
9d006680:	8fbe0004 	lw	s8,4(sp)
9d006684:	27bd0008 	addiu	sp,sp,8
9d006688:	03e00008 	jr	ra
9d00668c:	00000000 	nop

Disassembly of section .text.libm:

9d006690 <fpexlog>:
9d006690:	00043ec2 30e7001e 3c01f000 00814024     .>.....0...<$@..
9d0066a0:	28a1007f 14200008 00000000 24060000     ...(.. ........$
9d0066b0:	24adff81 01045821 3c010fff 3421ffff     ...$!X.....<..!4
9d0066c0:	10000009 00812024                       ....$ ..

9d0066c8 <i1>:
9d0066c8:	3c068000 	lui	a2,0x8000
9d0066cc:	240d007e 	li	t5,126
9d0066d0:	01a56823 	subu	t5,t5,a1
9d0066d4:	24e7fff2 	addiu	a3,a3,-14
9d0066d8:	3c011000 	lui	at,0x1000
9d0066dc:	01014021 	addu	t0,t0,at
9d0066e0:	01045821 	addu	t3,t0,a0
9d0066e4:	01042023 	subu	a0,t0,a0

9d0066e8 <e1>:
9d0066e8:	000b5842 	srl	t3,t3,0x1
9d0066ec:	3c018000 	lui	at,0x8000
9d0066f0:	01615825 	or	t3,t3,at
9d0066f4:	2405007f 	li	a1,127
9d0066f8:	70884020 	clz	t0,a0
9d0066fc:	00a82823 	subu	a1,a1,t0
9d006700:	01042004 	sllv	a0,a0,t0
9d006704:	008b082b 	sltu	at,a0,t3
9d006708:	14200003 	bnez	at,9d006718 <i2>
9d00670c:	00000000 	nop
9d006710:	00042042 	srl	a0,a0,0x1
9d006714:	24a50001 	addiu	a1,a1,1

9d006718 <i2>:
9d006718:	000b6402 	srl	t4,t3,0x10
9d00671c:	018001f4 	teq	t4,zero,0x7
9d006720:	008c001b 	divu	zero,a0,t4
9d006724:	00004012 	mflo	t0
9d006728:	00002010 	mfhi	a0
9d00672c:	3169ffff 	andi	t1,t3,0xffff
9d006730:	01280019 	multu	t1,t0
9d006734:	00005012 	mflo	t2
9d006738:	00042400 	sll	a0,a0,0x10
9d00673c:	000b7c42 	srl	t7,t3,0x11
9d006740:	008f2025 	or	a0,a0,t7
9d006744:	008a782b 	sltu	t7,a0,t2
9d006748:	11e00006 	beqz	t7,9d006764 <i3>
9d00674c:	008a2023 	subu	a0,a0,t2

9d006750 <b4>:
9d006750:	2508ffff 	addiu	t0,t0,-1
9d006754:	008b2021 	addu	a0,a0,t3
9d006758:	008b082b 	sltu	at,a0,t3
9d00675c:	1020fffc 	beqz	at,9d006750 <b4>
9d006760:	00000000 	nop

9d006764 <i3>:
9d006764:	018001f4 	teq	t4,zero,0x7
9d006768:	008c001b 	divu	zero,a0,t4
9d00676c:	00002012 	mflo	a0
9d006770:	00006010 	mfhi	t4
9d006774:	01240019 	multu	t1,a0
9d006778:	00005012 	mflo	t2
9d00677c:	000c6400 	sll	t4,t4,0x10
9d006780:	018a782b 	sltu	t7,t4,t2
9d006784:	11e00006 	beqz	t7,9d0067a0 <i5>
9d006788:	018a6023 	subu	t4,t4,t2

9d00678c <b6>:
9d00678c:	2484ffff 	addiu	a0,a0,-1
9d006790:	018b6021 	addu	t4,t4,t3
9d006794:	018b082b 	sltu	at,t4,t3
9d006798:	1020fffc 	beqz	at,9d00678c <b6>
9d00679c:	00000000 	nop

9d0067a0 <i5>:
9d0067a0:	00087c00 	sll	t7,t0,0x10
9d0067a4:	008f2021 	addu	a0,a0,t7
9d0067a8:	00840019 	multu	a0,a0
9d0067ac:	00005810 	mfhi	t3
9d0067b0:	24080080 	li	t0,128
9d0067b4:	01054023 	subu	t0,t0,a1
9d0067b8:	00084040 	sll	t0,t0,0x1
9d0067bc:	2d010020 	sltiu	at,t0,32
9d0067c0:	14200002 	bnez	at,9d0067cc <L1>
9d0067c4:	00000000 	nop
9d0067c8:	340b0000 	li	t3,0x0

9d0067cc <L1>:
9d0067cc:	010b5806 	srlv	t3,t3,t0
9d0067d0:	3c0ea000 	lui	t6,0xa000
9d0067d4:	25ce050c 	addiu	t6,t6,1292
9d0067d8:	8dca0000 	lw	t2,0(t6)
9d0067dc:	25ce0004 	addiu	t6,t6,4

9d0067e0 <b7>:
9d0067e0:	016a0019 	multu	t3,t2
9d0067e4:	00005010 	mfhi	t2
9d0067e8:	8dc90000 	lw	t1,0(t6)
9d0067ec:	25ce0004 	addiu	t6,t6,4
9d0067f0:	01495021 	addu	t2,t2,t1
9d0067f4:	3c014000 	lui	at,0x4000
9d0067f8:	0121082b 	sltu	at,t1,at
9d0067fc:	1420fff8 	bnez	at,9d0067e0 <b7>
9d006800:	00000000 	nop
9d006804:	008a0019 	multu	a0,t2
9d006808:	00004012 	mflo	t0
9d00680c:	00002010 	mfhi	a0
9d006810:	18800006 	blez	a0,9d00682c <i8>
9d006814:	00000000 	nop
9d006818:	0100782a 	slt	t7,t0,zero
9d00681c:	01084021 	addu	t0,t0,t0
9d006820:	00842021 	addu	a0,a0,a0
9d006824:	008f2021 	addu	a0,a0,t7
9d006828:	24a5ffff 	addiu	a1,a1,-1

9d00682c <i8>:
9d00682c:	3c0fa000 	lui	t7,0xa000
9d006830:	25ef0518 	addiu	t7,t7,1304
9d006834:	24e20001 	addiu	v0,a3,1
9d006838:	00021080 	sll	v0,v0,0x2
9d00683c:	01e27821 	addu	t7,t7,v0
9d006840:	8de80000 	lw	t0,0(t7)
9d006844:	11000015 	beqz	t0,9d00689c <i9>
9d006848:	00000000 	nop
9d00684c:	01054823 	subu	t1,t0,a1
9d006850:	2d210020 	sltiu	at,t1,32
9d006854:	14200002 	bnez	at,9d006860 <L2>
9d006858:	00000000 	nop
9d00685c:	34040000 	li	a0,0x0

9d006860 <L2>:
9d006860:	01242006 	srlv	a0,a0,t1
9d006864:	00082825 	or	a1,zero,t0
9d006868:	3c0fa000 	lui	t7,0xa000
9d00686c:	25ef0518 	addiu	t7,t7,1304
9d006870:	00071080 	sll	v0,a3,0x2
9d006874:	01e27821 	addu	t7,t7,v0
9d006878:	8de80000 	lw	t0,0(t7)
9d00687c:	00882021 	addu	a0,a0,t0
9d006880:	0088782b 	sltu	t7,a0,t0
9d006884:	11e00005 	beqz	t7,9d00689c <i9>
9d006888:	00000000 	nop
9d00688c:	00042042 	srl	a0,a0,0x1
9d006890:	3c018000 	lui	at,0x8000
9d006894:	00812025 	or	a0,a0,at
9d006898:	24a50001 	addiu	a1,a1,1

9d00689c <i9>:
9d00689c:	11a00020 	beqz	t5,9d006920 <i11>
9d0068a0:	00000000 	nop
9d0068a4:	240c009e 	li	t4,158
9d0068a8:	71a84020 	clz	t0,t5
9d0068ac:	01886023 	subu	t4,t4,t0
9d0068b0:	010d6804 	sllv	t5,t5,t0
9d0068b4:	3c0bb172 	lui	t3,0xb172
9d0068b8:	356b17f8 	ori	t3,t3,0x17f8
9d0068bc:	016d0019 	multu	t3,t5
9d0068c0:	00004012 	mflo	t0
9d0068c4:	00005810 	mfhi	t3
9d0068c8:	19600006 	blez	t3,9d0068e4 <i12>
9d0068cc:	00000000 	nop
9d0068d0:	0100782a 	slt	t7,t0,zero
9d0068d4:	01084021 	addu	t0,t0,t0
9d0068d8:	016b5821 	addu	t3,t3,t3
9d0068dc:	016f5821 	addu	t3,t3,t7
9d0068e0:	258cffff 	addiu	t4,t4,-1

9d0068e4 <i12>:
9d0068e4:	01854023 	subu	t0,t4,a1
9d0068e8:	2d010020 	sltiu	at,t0,32
9d0068ec:	14200002 	bnez	at,9d0068f8 <L3>
9d0068f0:	00000000 	nop
9d0068f4:	34040000 	li	a0,0x0

9d0068f8 <L3>:
9d0068f8:	01042006 	srlv	a0,a0,t0
9d0068fc:	008b2021 	addu	a0,a0,t3
9d006900:	008b782b 	sltu	t7,a0,t3
9d006904:	11e00005 	beqz	t7,9d00691c <i13>
9d006908:	00000000 	nop
9d00690c:	00042042 	srl	a0,a0,0x1
9d006910:	3c018000 	lui	at,0x8000
9d006914:	00812025 	or	a0,a0,at
9d006918:	258c0001 	addiu	t4,t4,1

9d00691c <i13>:
9d00691c:	000c2825 	or	a1,zero,t4

9d006920 <i11>:
9d006920:	14800002 	bnez	a0,9d00692c <i14>
9d006924:	00000000 	nop
9d006928:	24050000 	li	a1,0

9d00692c <i14>:
9d00692c:	00041025 	or	v0,zero,a0
9d006930:	00051825 	or	v1,zero,a1
9d006934:	0006c025 	or	t8,zero,a2

9d006938 <A999>:
9d006938:	03e00008 	jr	ra
9d00693c:	00000000 	nop
9d006940:	00000000 	nop

Disassembly of section .text.free:

9d006944 <free>:
9d006944:	10800076 	beqz	a0,9d006b20 <free+0x1dc>
9d006948:	2403fffe 	li	v1,-2
9d00694c:	8c86fffc 	lw	a2,-4(a0)
9d006950:	2485fff8 	addiu	a1,a0,-8
9d006954:	00c31824 	and	v1,a2,v1
9d006958:	00a31021 	addu	v0,a1,v1
9d00695c:	8c470004 	lw	a3,4(v0)
9d006960:	30e80001 	andi	t0,a3,0x1
9d006964:	1100006e 	beqz	t0,9d006b20 <free+0x1dc>
9d006968:	240afffc 	li	t2,-4
9d00696c:	3c08a000 	lui	t0,0xa000
9d006970:	25080030 	addiu	t0,t0,48
9d006974:	8d090008 	lw	t1,8(t0)
9d006978:	00ea3824 	and	a3,a3,t2
9d00697c:	10490058 	beq	v0,t1,9d006ae0 <free+0x19c>
9d006980:	30c60001 	andi	a2,a2,0x1
9d006984:	ac470004 	sw	a3,4(v0)
9d006988:	14c0000c 	bnez	a2,9d0069bc <free+0x78>
9d00698c:	00004821 	move	t1,zero
9d006990:	8c86fff8 	lw	a2,-8(a0)
9d006994:	00a62823 	subu	a1,a1,a2
9d006998:	8ca40008 	lw	a0,8(a1)
9d00699c:	00661821 	addu	v1,v1,a2
9d0069a0:	3c06a000 	lui	a2,0xa000
9d0069a4:	24c60038 	addiu	a2,a2,56
9d0069a8:	50860004 	beql	a0,a2,9d0069bc <free+0x78>
9d0069ac:	24090001 	li	t1,1
9d0069b0:	8ca6000c 	lw	a2,12(a1)
9d0069b4:	ac86000c 	sw	a2,12(a0)
9d0069b8:	acc40008 	sw	a0,8(a2)
9d0069bc:	00472021 	addu	a0,v0,a3
9d0069c0:	8c840004 	lw	a0,4(a0)
9d0069c4:	30840001 	andi	a0,a0,0x1
9d0069c8:	54800008 	bnezl	a0,9d0069ec <free+0xa8>
9d0069cc:	34640001 	ori	a0,v1,0x1
9d0069d0:	00671821 	addu	v1,v1,a3
9d0069d4:	11200027 	beqz	t1,9d006a74 <free+0x130>
9d0069d8:	8c440008 	lw	a0,8(v0)
9d0069dc:	8c42000c 	lw	v0,12(v0)
9d0069e0:	ac82000c 	sw	v0,12(a0)
9d0069e4:	ac440008 	sw	a0,8(v0)
9d0069e8:	34640001 	ori	a0,v1,0x1
9d0069ec:	00a31021 	addu	v0,a1,v1
9d0069f0:	aca40004 	sw	a0,4(a1)
9d0069f4:	1520004a 	bnez	t1,9d006b20 <free+0x1dc>
9d0069f8:	ac430000 	sw	v1,0(v0)
9d0069fc:	2c620200 	sltiu	v0,v1,512
9d006a00:	54400029 	bnezl	v0,9d006aa8 <free+0x164>
9d006a04:	000318c2 	srl	v1,v1,0x3
9d006a08:	00031242 	srl	v0,v1,0x9
9d006a0c:	2c440005 	sltiu	a0,v0,5
9d006a10:	1080004d 	beqz	a0,9d006b48 <free+0x204>
9d006a14:	2c440015 	sltiu	a0,v0,21
9d006a18:	00032182 	srl	a0,v1,0x6
9d006a1c:	24840038 	addiu	a0,a0,56
9d006a20:	00043040 	sll	a2,a0,0x1
9d006a24:	00063080 	sll	a2,a2,0x2
9d006a28:	01063021 	addu	a2,t0,a2
9d006a2c:	8cc20008 	lw	v0,8(a2)
9d006a30:	5046004a 	beql	v0,a2,9d006b5c <free+0x218>
9d006a34:	8d030004 	lw	v1,4(t0)
9d006a38:	2407fffc 	li	a3,-4
9d006a3c:	8c440004 	lw	a0,4(v0)
9d006a40:	00872024 	and	a0,a0,a3
9d006a44:	0064202b 	sltu	a0,v1,a0
9d006a48:	50800005 	beqzl	a0,9d006a60 <free+0x11c>
9d006a4c:	8c43000c 	lw	v1,12(v0)
9d006a50:	8c420008 	lw	v0,8(v0)
9d006a54:	54c2fffa 	bnel	a2,v0,9d006a40 <free+0xfc>
9d006a58:	8c440004 	lw	a0,4(v0)
9d006a5c:	8c43000c 	lw	v1,12(v0)
9d006a60:	aca3000c 	sw	v1,12(a1)
9d006a64:	aca20008 	sw	v0,8(a1)
9d006a68:	ac650008 	sw	a1,8(v1)
9d006a6c:	03e00008 	jr	ra
9d006a70:	ac45000c 	sw	a1,12(v0)
9d006a74:	3c06a000 	lui	a2,0xa000
9d006a78:	24c60038 	addiu	a2,a2,56
9d006a7c:	5486ffd8 	bnel	a0,a2,9d0069e0 <free+0x9c>
9d006a80:	8c42000c 	lw	v0,12(v0)
9d006a84:	34660001 	ori	a2,v1,0x1
9d006a88:	00a31021 	addu	v0,a1,v1
9d006a8c:	ad050014 	sw	a1,20(t0)
9d006a90:	ad050010 	sw	a1,16(t0)
9d006a94:	aca4000c 	sw	a0,12(a1)
9d006a98:	aca40008 	sw	a0,8(a1)
9d006a9c:	aca60004 	sw	a2,4(a1)
9d006aa0:	03e00008 	jr	ra
9d006aa4:	ac430000 	sw	v1,0(v0)
9d006aa8:	000310c0 	sll	v0,v1,0x3
9d006aac:	01021021 	addu	v0,t0,v0
9d006ab0:	8d060004 	lw	a2,4(t0)
9d006ab4:	8c440008 	lw	a0,8(v0)
9d006ab8:	00031883 	sra	v1,v1,0x2
9d006abc:	24070001 	li	a3,1
9d006ac0:	00671804 	sllv	v1,a3,v1
9d006ac4:	00661825 	or	v1,v1,a2
9d006ac8:	aca2000c 	sw	v0,12(a1)
9d006acc:	aca40008 	sw	a0,8(a1)
9d006ad0:	ad030004 	sw	v1,4(t0)
9d006ad4:	ac450008 	sw	a1,8(v0)
9d006ad8:	03e00008 	jr	ra
9d006adc:	ac85000c 	sw	a1,12(a0)
9d006ae0:	14c00008 	bnez	a2,9d006b04 <free+0x1c0>
9d006ae4:	00e33821 	addu	a3,a3,v1
9d006ae8:	8c84fff8 	lw	a0,-8(a0)
9d006aec:	00a42823 	subu	a1,a1,a0
9d006af0:	8ca2000c 	lw	v0,12(a1)
9d006af4:	8ca30008 	lw	v1,8(a1)
9d006af8:	00e43821 	addu	a3,a3,a0
9d006afc:	ac62000c 	sw	v0,12(v1)
9d006b00:	ac430008 	sw	v1,8(v0)
9d006b04:	3c02a000 	lui	v0,0xa000
9d006b08:	8c42002c 	lw	v0,44(v0)
9d006b0c:	34e30001 	ori	v1,a3,0x1
9d006b10:	aca30004 	sw	v1,4(a1)
9d006b14:	00e2382b 	sltu	a3,a3,v0
9d006b18:	10e00003 	beqz	a3,9d006b28 <free+0x1e4>
9d006b1c:	ad050008 	sw	a1,8(t0)
9d006b20:	03e00008 	jr	ra
9d006b24:	00000000 	nop
9d006b28:	27bdffe8 	addiu	sp,sp,-24
9d006b2c:	afbf0014 	sw	ra,20(sp)
9d006b30:	3c02a000 	lui	v0,0xa000
9d006b34:	0f401f2d 	jal	9d007cb4 <malloc_trim>
9d006b38:	8c4406d4 	lw	a0,1748(v0)
9d006b3c:	8fbf0014 	lw	ra,20(sp)
9d006b40:	03e00008 	jr	ra
9d006b44:	27bd0018 	addiu	sp,sp,24
9d006b48:	5080000b 	beqzl	a0,9d006b78 <free+0x234>
9d006b4c:	2c440055 	sltiu	a0,v0,85
9d006b50:	2444005b 	addiu	a0,v0,91
9d006b54:	0b401a89 	j	9d006a24 <free+0xe0>
9d006b58:	00043040 	sll	a2,a0,0x1
9d006b5c:	00042083 	sra	a0,a0,0x2
9d006b60:	24060001 	li	a2,1
9d006b64:	00862004 	sllv	a0,a2,a0
9d006b68:	00831825 	or	v1,a0,v1
9d006b6c:	ad030004 	sw	v1,4(t0)
9d006b70:	0b401a98 	j	9d006a60 <free+0x11c>
9d006b74:	00401821 	move	v1,v0
9d006b78:	50800005 	beqzl	a0,9d006b90 <free+0x24c>
9d006b7c:	2c440155 	sltiu	a0,v0,341
9d006b80:	00032302 	srl	a0,v1,0xc
9d006b84:	2484006e 	addiu	a0,a0,110
9d006b88:	0b401a89 	j	9d006a24 <free+0xe0>
9d006b8c:	00043040 	sll	a2,a0,0x1
9d006b90:	10800005 	beqz	a0,9d006ba8 <free+0x264>
9d006b94:	2c420555 	sltiu	v0,v0,1365
9d006b98:	000323c2 	srl	a0,v1,0xf
9d006b9c:	24840077 	addiu	a0,a0,119
9d006ba0:	0b401a89 	j	9d006a24 <free+0xe0>
9d006ba4:	00043040 	sll	a2,a0,0x1
9d006ba8:	50400005 	beqzl	v0,9d006bc0 <free+0x27c>
9d006bac:	240600fc 	li	a2,252
9d006bb0:	00032482 	srl	a0,v1,0x12
9d006bb4:	2484007c 	addiu	a0,a0,124
9d006bb8:	0b401a89 	j	9d006a24 <free+0xe0>
9d006bbc:	00043040 	sll	a2,a0,0x1
9d006bc0:	0b401a89 	j	9d006a24 <free+0xe0>
9d006bc4:	2404007e 	li	a0,126

Disassembly of section .text.fpsubadd:

9d006bc8 <__subsf3>:
9d006bc8:	3c018000 00a12826                       ...<&(..

9d006bd0 <__addsf3>:
9d006bd0:	00044dc2 312900ff 00055dc2 316b00ff     .M....)1.]....k1
9d006be0:	3c078000 00044200 01074025 00055200     ...<.B..%@...R..
9d006bf0:	01475025 252dffff 2da100fe 10200061     %PG...-%...-a. .
9d006c00:	00000000                                ....

9d006c04 <Blab1>:
9d006c04:	256dffff 	addiu	t5,t3,-1
9d006c08:	2da100fe 	sltiu	at,t5,254
9d006c0c:	10200077 	beqz	at,9d006dec <BspecB>
9d006c10:	00000000 	nop

9d006c14 <Blab2>:
9d006c14:	012b6023 	subu	t4,t1,t3
9d006c18:	0580000d 	bltz	t4,9d006c50 <i1>
9d006c1c:	00000000 	nop
9d006c20:	29810020 	slti	at,t4,32
9d006c24:	14200003 	bnez	at,9d006c34 <i2>
9d006c28:	00000000 	nop
9d006c2c:	10000015 	b	9d006c84 <e1>
9d006c30:	240a0002 	li	t2,2

9d006c34 <i2>:
9d006c34:	000a3025 	or	a2,zero,t2
9d006c38:	018a5006 	srlv	t2,t2,t4
9d006c3c:	018a6804 	sllv	t5,t2,t4
9d006c40:	11a60010 	beq	t5,a2,9d006c84 <e1>
9d006c44:	00000000 	nop
9d006c48:	1000000e 	b	9d006c84 <e1>
9d006c4c:	354a0002 	ori	t2,t2,0x2

9d006c50 <i1>:
9d006c50:	000b4825 	or	t1,zero,t3
9d006c54:	000c6023 	negu	t4,t4
9d006c58:	29810020 	slti	at,t4,32
9d006c5c:	14200003 	bnez	at,9d006c6c <i4>
9d006c60:	00000000 	nop
9d006c64:	10000007 	b	9d006c84 <e1>
9d006c68:	24080002 	li	t0,2

9d006c6c <i4>:
9d006c6c:	00083025 	or	a2,zero,t0
9d006c70:	01884006 	srlv	t0,t0,t4
9d006c74:	01886804 	sllv	t5,t0,t4
9d006c78:	11a60002 	beq	t5,a2,9d006c84 <e1>
9d006c7c:	00000000 	nop
9d006c80:	35080002 	ori	t0,t0,0x2

9d006c84 <e1>:
9d006c84:	00876024 	and	t4,a0,a3
9d006c88:	01856826 	xor	t5,t4,a1
9d006c8c:	05a00010 	bltz	t5,9d006cd0 <Bsub1>
9d006c90:	00000000 	nop
9d006c94:	010a4021 	addu	t0,t0,t2
9d006c98:	010a682b 	sltu	t5,t0,t2
9d006c9c:	11a00017 	beqz	t5,9d006cfc <Bres>
9d006ca0:	00000000 	nop
9d006ca4:	310d0001 	andi	t5,t0,0x1
9d006ca8:	11a00002 	beqz	t5,9d006cb4 <i7>
9d006cac:	00000000 	nop
9d006cb0:	35080002 	ori	t0,t0,0x2

9d006cb4 <i7>:
9d006cb4:	00084042 	srl	t0,t0,0x1
9d006cb8:	25290001 	addiu	t1,t1,1
9d006cbc:	240100ff 	li	at,255
9d006cc0:	1521000e 	bne	t1,at,9d006cfc <Bres>
9d006cc4:	00000000 	nop
9d006cc8:	1000000c 	b	9d006cfc <Bres>
9d006ccc:	24080000 	li	t0,0

9d006cd0 <Bsub1>:
9d006cd0:	010a682b 	sltu	t5,t0,t2
9d006cd4:	11a00004 	beqz	t5,9d006ce8 <i9>
9d006cd8:	010a4023 	subu	t0,t0,t2
9d006cdc:	00084023 	negu	t0,t0
9d006ce0:	10000003 	b	9d006cf0 <e9>
9d006ce4:	01876026 	xor	t4,t4,a3

9d006ce8 <i9>:
9d006ce8:	11000050 	beqz	t0,9d006e2c <Bzer>
9d006cec:	00000000 	nop

9d006cf0 <e9>:
9d006cf0:	71063020 	clz	a2,t0
9d006cf4:	01264823 	subu	t1,t1,a2
9d006cf8:	00c84004 	sllv	t0,t0,a2

9d006cfc <Bres>:
9d006cfc:	1920000e 	blez	t1,9d006d38 <Bund>
9d006d00:	00000000 	nop

9d006d04 <Blab12>:
9d006d04:	25080080 	addiu	t0,t0,128
9d006d08:	2d0d0080 	sltiu	t5,t0,128
9d006d0c:	012d4821 	addu	t1,t1,t5
9d006d10:	00086a02 	srl	t5,t0,0x8
9d006d14:	31ad0001 	andi	t5,t5,0x1
9d006d18:	010d4023 	subu	t0,t0,t5
9d006d1c:	00084040 	sll	t0,t0,0x1
9d006d20:	00084242 	srl	t0,t0,0x9
9d006d24:	00096dc0 	sll	t5,t1,0x17
9d006d28:	010d4025 	or	t0,t0,t5
9d006d2c:	010c1025 	or	v0,t0,t4

9d006d30 <B999>:
9d006d30:	03e00008 	jr	ra
9d006d34:	00000000 	nop

9d006d38 <Bund>:
9d006d38:	24060001 	li	a2,1
9d006d3c:	00c93023 	subu	a2,a2,t1
9d006d40:	2cc10020 	sltiu	at,a2,32
9d006d44:	10200039 	beqz	at,9d006e2c <Bzer>
9d006d48:	00000000 	nop
9d006d4c:	3c018000 	lui	at,0x8000
9d006d50:	01014025 	or	t0,t0,at
9d006d54:	240d0020 	li	t5,32
9d006d58:	01a66823 	subu	t5,t5,a2
9d006d5c:	01a84804 	sllv	t1,t0,t5
9d006d60:	11200002 	beqz	t1,9d006d6c <i10>
9d006d64:	00c84006 	srlv	t0,t0,a2
9d006d68:	35080001 	ori	t0,t0,0x1

9d006d6c <i10>:
9d006d6c:	24090000 	li	t1,0
9d006d70:	250d0080 	addiu	t5,t0,128
9d006d74:	05a1ffe3 	bgez	t5,9d006d04 <Blab12>
9d006d78:	00000000 	nop
9d006d7c:	1000ffe1 	b	9d006d04 <Blab12>
9d006d80:	24090001 	li	t1,1

9d006d84 <BspecA>:
9d006d84:	1520000e 	bnez	t1,9d006dc0 <i12>
9d006d88:	00000000 	nop
9d006d8c:	01084021 	addu	t0,t0,t0
9d006d90:	11000005 	beqz	t0,9d006da8 <i13>
9d006d94:	00000000 	nop
9d006d98:	710c6020 	clz	t4,t0
9d006d9c:	012c4823 	subu	t1,t1,t4
9d006da0:	1000ff98 	b	9d006c04 <Blab1>
9d006da4:	01884004 	sllv	t0,t0,t4

9d006da8 <i13>:
9d006da8:	240100ff 	li	at,255
9d006dac:	1161000f 	beq	t3,at,9d006dec <BspecB>
9d006db0:	00000000 	nop
9d006db4:	3c018000 	lui	at,0x8000
9d006db8:	14a10018 	bne	a1,at,9d006e1c <BretB>
9d006dbc:	00000000 	nop

9d006dc0 <i12>:
9d006dc0:	01086821 	addu	t5,t0,t0
9d006dc4:	15a0001b 	bnez	t5,9d006e34 <Bnan>
9d006dc8:	00000000 	nop
9d006dcc:	240100ff 	li	at,255
9d006dd0:	15610014 	bne	t3,at,9d006e24 <BretA>
9d006dd4:	00000000 	nop
9d006dd8:	00856826 	xor	t5,a0,a1
9d006ddc:	05a00015 	bltz	t5,9d006e34 <Bnan>
9d006de0:	00000000 	nop
9d006de4:	1000000d 	b	9d006e1c <BretB>
9d006de8:	00000000 	nop

9d006dec <BspecB>:
9d006dec:	15600008 	bnez	t3,9d006e10 <i15>
9d006df0:	00000000 	nop
9d006df4:	014a5021 	addu	t2,t2,t2
9d006df8:	1140000a 	beqz	t2,9d006e24 <BretA>
9d006dfc:	00000000 	nop
9d006e00:	714c6020 	clz	t4,t2
9d006e04:	016c5823 	subu	t3,t3,t4
9d006e08:	1000ff82 	b	9d006c14 <Blab2>
9d006e0c:	018a5004 	sllv	t2,t2,t4

9d006e10 <i15>:
9d006e10:	014a6821 	addu	t5,t2,t2
9d006e14:	15a00007 	bnez	t5,9d006e34 <Bnan>
9d006e18:	00000000 	nop

9d006e1c <BretB>:
9d006e1c:	1000ffc4 	b	9d006d30 <B999>
9d006e20:	00051025 	or	v0,zero,a1

9d006e24 <BretA>:
9d006e24:	1000ffc2 	b	9d006d30 <B999>
9d006e28:	00041025 	or	v0,zero,a0

9d006e2c <Bzer>:
9d006e2c:	1000ffc0 	b	9d006d30 <B999>
9d006e30:	24020000 	li	v0,0

9d006e34 <Bnan>:
9d006e34:	1000ffbe 	b	9d006d30 <B999>
9d006e38:	3c02ffc0 	lui	v0,0xffc0
9d006e3c:	00000000 	nop

Disassembly of section .text.fp32div:

9d006e40 <__divsf3>:
9d006e40:	3c0b8000 000445c2 310800ff 000555c2     ...<.E.....1.U..
9d006e50:	314a00ff 00043a00 00eb3825 00054a00     ..J1.:..%8...J..
9d006e60:	012b4825 00857026 016e5824 250effff     %H+.&p..$Xn....%
9d006e70:	2dc100fe 1020003f 00000000              ...-?. .....

9d006e7c <Dlab1>:
9d006e7c:	254effff 	addiu	t6,t2,-1
9d006e80:	2dc100fe 	sltiu	at,t6,254
9d006e84:	10200053 	beqz	at,9d006fd4 <DspecB>
9d006e88:	00000000 	nop

9d006e8c <Dlab2>:
9d006e8c:	00e9082b 	sltu	at,a3,t1
9d006e90:	14200003 	bnez	at,9d006ea0 <i27>
9d006e94:	00000000 	nop
9d006e98:	00073842 	srl	a3,a3,0x1
9d006e9c:	25080001 	addiu	t0,t0,1

9d006ea0 <i27>:
9d006ea0:	00096382 	srl	t4,t1,0xe
9d006ea4:	018001f4 	teq	t4,zero,0x7
9d006ea8:	00ec001b 	divu	zero,a3,t4
9d006eac:	00002012 	mflo	a0
9d006eb0:	00003010 	mfhi	a2
9d006eb4:	312d3fff 	andi	t5,t1,0x3fff
9d006eb8:	01a40019 	multu	t5,a0
9d006ebc:	00002812 	mflo	a1
9d006ec0:	00063380 	sll	a2,a2,0xe
9d006ec4:	00c5702b 	sltu	t6,a2,a1
9d006ec8:	11c00004 	beqz	t6,9d006edc <i28>
9d006ecc:	00c53023 	subu	a2,a2,a1
9d006ed0:	2484ffff 	addiu	a0,a0,-1
9d006ed4:	00c93021 	addu	a2,a2,t1
9d006ed8:	00c9702b 	sltu	t6,a2,t1

9d006edc <i28>:
9d006edc:	018001f4 	teq	t4,zero,0x7
9d006ee0:	00cc001b 	divu	zero,a2,t4
9d006ee4:	00003812 	mflo	a3
9d006ee8:	00003010 	mfhi	a2
9d006eec:	01a70019 	multu	t5,a3
9d006ef0:	00002812 	mflo	a1
9d006ef4:	00063380 	sll	a2,a2,0xe
9d006ef8:	00c5702b 	sltu	t6,a2,a1
9d006efc:	11c00004 	beqz	t6,9d006f10 <i29>
9d006f00:	00c53023 	subu	a2,a2,a1
9d006f04:	24e7ffff 	addiu	a3,a3,-1
9d006f08:	00c93021 	addu	a2,a2,t1
9d006f0c:	00c9702b 	sltu	t6,a2,t1

9d006f10 <i29>:
9d006f10:	00047380 	sll	t6,a0,0xe
9d006f14:	00ee3821 	addu	a3,a3,t6
9d006f18:	10c00002 	beqz	a2,9d006f24 <i30>
9d006f1c:	00073900 	sll	a3,a3,0x4
9d006f20:	34e70001 	ori	a3,a3,0x1

9d006f24 <i30>:
9d006f24:	240e007e 	li	t6,126
9d006f28:	01ca7023 	subu	t6,t6,t2
9d006f2c:	010e4021 	addu	t0,t0,t6
9d006f30:	250effff 	addiu	t6,t0,-1
9d006f34:	2dc100fe 	sltiu	at,t6,254
9d006f38:	10200034 	beqz	at,9d00700c <Doveund>
9d006f3c:	00000000 	nop

9d006f40 <Dlab8>:
9d006f40:	24e70080 	addiu	a3,a3,128
9d006f44:	2cee0080 	sltiu	t6,a3,128
9d006f48:	010e4021 	addu	t0,t0,t6
9d006f4c:	00077202 	srl	t6,a3,0x8
9d006f50:	31ce0001 	andi	t6,t6,0x1
9d006f54:	00ee3823 	subu	a3,a3,t6
9d006f58:	00073840 	sll	a3,a3,0x1
9d006f5c:	00073a42 	srl	a3,a3,0x9
9d006f60:	000875c0 	sll	t6,t0,0x17
9d006f64:	00ee3825 	or	a3,a3,t6
9d006f68:	00eb1025 	or	v0,a3,t3

9d006f6c <D999>:
9d006f6c:	03e00008 	jr	ra
9d006f70:	00000000 	nop

9d006f74 <DspecA>:
9d006f74:	15000008 	bnez	t0,9d006f98 <i31>
9d006f78:	00000000 	nop
9d006f7c:	00e73821 	addu	a3,a3,a3
9d006f80:	10e00005 	beqz	a3,9d006f98 <i31>
9d006f84:	00000000 	nop
9d006f88:	70ec6020 	clz	t4,a3
9d006f8c:	010c4023 	subu	t0,t0,t4
9d006f90:	1000ffba 	b	9d006e7c <Dlab1>
9d006f94:	01873804 	sllv	a3,a3,t4

9d006f98 <i31>:
9d006f98:	15480004 	bne	t2,t0,9d006fac <i33>
9d006f9c:	00000000 	nop
9d006fa0:	01297021 	addu	t6,t1,t1
9d006fa4:	11c0002f 	beqz	t6,9d007064 <Dnan>
9d006fa8:	00000000 	nop

9d006fac <i33>:
9d006fac:	240100ff 	li	at,255
9d006fb0:	11410008 	beq	t2,at,9d006fd4 <DspecB>
9d006fb4:	00000000 	nop
9d006fb8:	11000012 	beqz	t0,9d007004 <Dzer>
9d006fbc:	00000000 	nop
9d006fc0:	00e77021 	addu	t6,a3,a3
9d006fc4:	15c00027 	bnez	t6,9d007064 <Dnan>
9d006fc8:	00000000 	nop
9d006fcc:	10000022 	b	9d007058 <Dinf>
9d006fd0:	00000000 	nop

9d006fd4 <DspecB>:
9d006fd4:	15400008 	bnez	t2,9d006ff8 <i34>
9d006fd8:	00000000 	nop
9d006fdc:	01294821 	addu	t1,t1,t1
9d006fe0:	1120001d 	beqz	t1,9d007058 <Dinf>
9d006fe4:	00000000 	nop
9d006fe8:	712c6020 	clz	t4,t1
9d006fec:	014c5023 	subu	t2,t2,t4
9d006ff0:	1000ffa6 	b	9d006e8c <Dlab2>
9d006ff4:	01894804 	sllv	t1,t1,t4

9d006ff8 <i34>:
9d006ff8:	01297021 	addu	t6,t1,t1
9d006ffc:	15c00019 	bnez	t6,9d007064 <Dnan>
9d007000:	00000000 	nop

9d007004 <Dzer>:
9d007004:	1000ffd9 	b	9d006f6c <D999>
9d007008:	000b1025 	or	v0,zero,t3

9d00700c <Doveund>:
9d00700c:	1d000012 	bgtz	t0,9d007058 <Dinf>
9d007010:	00000000 	nop
9d007014:	240c0001 	li	t4,1
9d007018:	01886023 	subu	t4,t4,t0
9d00701c:	2d810020 	sltiu	at,t4,32
9d007020:	1020fff8 	beqz	at,9d007004 <Dzer>
9d007024:	00000000 	nop
9d007028:	240e0020 	li	t6,32
9d00702c:	01cc7023 	subu	t6,t6,t4
9d007030:	01c74004 	sllv	t0,a3,t6
9d007034:	11000002 	beqz	t0,9d007040 <i37>
9d007038:	01873806 	srlv	a3,a3,t4
9d00703c:	34e70002 	ori	a3,a3,0x2

9d007040 <i37>:
9d007040:	24080000 	li	t0,0
9d007044:	24ee0080 	addiu	t6,a3,128
9d007048:	05c1ffbd 	bgez	t6,9d006f40 <Dlab8>
9d00704c:	00000000 	nop
9d007050:	1000ffbb 	b	9d006f40 <Dlab8>
9d007054:	24080001 	li	t0,1

9d007058 <Dinf>:
9d007058:	3c017f80 	lui	at,0x7f80
9d00705c:	1000ffc3 	b	9d006f6c <D999>
9d007060:	01611025 	or	v0,t3,at

9d007064 <Dnan>:
9d007064:	1000ffc1 	b	9d006f6c <D999>
9d007068:	3c02ffc0 	lui	v0,0xffc0
9d00706c:	00000000 	nop

Disassembly of section .text:

9d007070 <fpexexp>:
9d007070:	000637c3 00064025 3c0ab8aa 354a3b29     .7..%@.....<);J5
9d007080:	01440019 00005012 00005810 19600006     ..D..P...X....`.
9d007090:	00000000 0140682a 014a5021 016b5821     ....*h@.!PJ.!Xk.
9d0070a0:	016d5821 24a5ffff                       !Xm....$

9d0070a8 <i1>:
9d0070a8:	24070000 	li	a3,0
9d0070ac:	24a5ff83 	addiu	a1,a1,-125
9d0070b0:	2ca10008 	sltiu	at,a1,8
9d0070b4:	1420000a 	bnez	at,9d0070e0 <i2>
9d0070b8:	00000000 	nop
9d0070bc:	1ca0002f 	bgtz	a1,9d00717c <Aovr>
9d0070c0:	00000000 	nop
9d0070c4:	00055023 	negu	t2,a1
9d0070c8:	2d410020 	sltiu	at,t2,32
9d0070cc:	14200002 	bnez	at,9d0070d8 <L1>
9d0070d0:	00000000 	nop
9d0070d4:	340b0000 	li	t3,0x0

9d0070d8 <L1>:
9d0070d8:	10000007 	b	9d0070f8 <e2>
9d0070dc:	014b5806 	srlv	t3,t3,t2

9d0070e0 <i2>:
9d0070e0:	10a00005 	beqz	a1,9d0070f8 <e2>
9d0070e4:	00000000 	nop
9d0070e8:	240d0020 	li	t5,32
9d0070ec:	01a56823 	subu	t5,t5,a1
9d0070f0:	01ab3806 	srlv	a3,t3,t5
9d0070f4:	00ab5804 	sllv	t3,t3,a1

9d0070f8 <e2>:
9d0070f8:	05610005 	bgez	t3,9d007110 <i4>
9d0070fc:	00000000 	nop
9d007100:	000b5823 	negu	t3,t3
9d007104:	2401ffff 	li	at,-1
9d007108:	01014026 	xor	t0,t0,at
9d00710c:	24e70001 	addiu	a3,a3,1

9d007110 <i4>:
9d007110:	00e62826 	xor	a1,a3,a2
9d007114:	00a62823 	subu	a1,a1,a2
9d007118:	24a5007f 	addiu	a1,a1,127
9d00711c:	3c0ca000 	lui	t4,0xa000
9d007120:	258c0720 	addiu	t4,t4,1824
9d007124:	8d840000 	lw	a0,0(t4)
9d007128:	258c0004 	addiu	t4,t4,4
9d00712c:	24090005 	li	t1,5

9d007130 <b5>:
9d007130:	01640019 	multu	t3,a0
9d007134:	00002010 	mfhi	a0
9d007138:	00882026 	xor	a0,a0,t0
9d00713c:	00882023 	subu	a0,a0,t0
9d007140:	8d870000 	lw	a3,0(t4)
9d007144:	258c0004 	addiu	t4,t4,4
9d007148:	00872021 	addu	a0,a0,a3
9d00714c:	2529ffff 	addiu	t1,t1,-1
9d007150:	0521fff7 	bgez	t1,9d007130 <b5>
9d007154:	00000000 	nop
9d007158:	04800003 	bltz	a0,9d007168 <Aret>
9d00715c:	00000000 	nop
9d007160:	00042040 	sll	a0,a0,0x1
9d007164:	24a5ffff 	addiu	a1,a1,-1

9d007168 <Aret>:
9d007168:	00041025 	or	v0,zero,a0
9d00716c:	00051825 	or	v1,zero,a1
9d007170:	0006c025 	or	t8,zero,a2

9d007174 <A999>:
9d007174:	03e00008 	jr	ra
9d007178:	00000000 	nop

9d00717c <Aovr>:
9d00717c:	3c048000 	lui	a0,0x8000
9d007180:	1000fff9 	b	9d007168 <Aret>
9d007184:	3905ffff 	xori	a1,t0,0xffff

9d007188 <__mchp_expf>:
9d007188:	27bdfff8 afbf0000 000435c2 30c600ff     ...'.....5.....0
9d007198:	00042a00 3c018000 00a12825 00043825     .*.....<%(..%8..
9d0071a8:	24c9ffff 2d2100fe 10200015 00000000     ...$..!-.. .....
9d0071b8:	afa40004 00052025 00062825 0f401c1c     ....% ..%(....@.
9d0071c8:	00073025 00183825 00033025 00022825     %0..%8..%0..%(..
9d0071d8:	8fa40004 24c9ffff 2d2100fe 10200015     .......$..!-.. .
9d0071e8:	00000000 00051040 00021242 00064dc0     ....@...B....M..
9d0071f8:	00491025                                %.I.

9d0071fc <B999>:
9d0071fc:	8fbf0000 	lw	ra,0(sp)
9d007200:	03e00008 	jr	ra
9d007204:	27bd0008 	addiu	sp,sp,8

9d007208 <Bspec>:
9d007208:	14c00003 	bnez	a2,9d007218 <i7>
9d00720c:	00000000 	nop
9d007210:	1000fffa 	b	9d0071fc <B999>
9d007214:	3c023f80 	lui	v0,0x3f80

9d007218 <i7>:
9d007218:	00054840 	sll	t1,a1,0x1
9d00721c:	11200003 	beqz	t1,9d00722c <i8>
9d007220:	00000000 	nop
9d007224:	1000fff5 	b	9d0071fc <B999>
9d007228:	3c02ffc0 	lui	v0,0xffc0

9d00722c <i8>:
9d00722c:	04810003 	bgez	a0,9d00723c <Bundove>
9d007230:	00000000 	nop
9d007234:	1000fff1 	b	9d0071fc <B999>
9d007238:	24020000 	li	v0,0

9d00723c <Bundove>:
9d00723c:	0481000a 	bgez	a0,9d007268 <i10>
9d007240:	00000000 	nop
9d007244:	24080009 	li	t0,9
9d007248:	01064023 	subu	t0,t0,a2
9d00724c:	2d010020 	sltiu	at,t0,32
9d007250:	14200002 	bnez	at,9d00725c <L2>
9d007254:	00000000 	nop
9d007258:	34050000 	li	a1,0x0

9d00725c <L2>:
9d00725c:	01052806 	srlv	a1,a1,t0
9d007260:	1000ffe6 	b	9d0071fc <B999>
9d007264:	00051025 	or	v0,zero,a1

9d007268 <i10>:
9d007268:	1000ffe4 	b	9d0071fc <B999>
9d00726c:	3c027f80 	lui	v0,0x7f80
9d007270:	00000000 	nop

Disassembly of section .text.fp32mul:

9d007274 <__mulsf3>:
9d007274:	00043dc2 30e700ff 00054dc2 312900ff     .=.....0.M....)1
9d007284:	3c0a8000 00043200 00ca3025 00054200     ...<.2..%0...B..
9d007294:	010a4025 00856026 014c5024 24ecffff     %@..&`..$PL....$
9d0072a4:	2d8100fe 10200021 00000000              ...-!. .....

9d0072b0 <Clab1>:
9d0072b0:	252cffff 	addiu	t4,t1,-1
9d0072b4:	2d8100fe 	sltiu	at,t4,254
9d0072b8:	10200036 	beqz	at,9d007394 <CspecB>
9d0072bc:	00000000 	nop

9d0072c0 <Clab2>:
9d0072c0:	00c80019 	multu	a2,t0
9d0072c4:	00005812 	mflo	t3
9d0072c8:	11600002 	beqz	t3,9d0072d4 <i17>
9d0072cc:	00003010 	mfhi	a2
9d0072d0:	34c60001 	ori	a2,a2,0x1

9d0072d4 <i17>:
9d0072d4:	04c00003 	bltz	a2,9d0072e4 <i18>
9d0072d8:	00000000 	nop
9d0072dc:	00063040 	sll	a2,a2,0x1
9d0072e0:	24e7ffff 	addiu	a3,a3,-1

9d0072e4 <i18>:
9d0072e4:	252cff82 	addiu	t4,t1,-126
9d0072e8:	00ec3821 	addu	a3,a3,t4
9d0072ec:	24ecffff 	addiu	t4,a3,-1
9d0072f0:	2d8100fe 	sltiu	at,t4,254
9d0072f4:	1020003a 	beqz	at,9d0073e0 <Coveund>
9d0072f8:	00000000 	nop

9d0072fc <Clab8>:
9d0072fc:	24c60080 	addiu	a2,a2,128
9d007300:	2ccc0080 	sltiu	t4,a2,128
9d007304:	00ec3821 	addu	a3,a3,t4
9d007308:	00066202 	srl	t4,a2,0x8
9d00730c:	318c0001 	andi	t4,t4,0x1
9d007310:	00cc3023 	subu	a2,a2,t4
9d007314:	00063040 	sll	a2,a2,0x1
9d007318:	00063242 	srl	a2,a2,0x9
9d00731c:	000765c0 	sll	t4,a3,0x17
9d007320:	00cc3025 	or	a2,a2,t4
9d007324:	00ca1025 	or	v0,a2,t2

9d007328 <C999>:
9d007328:	03e00008 	jr	ra
9d00732c:	00000000 	nop

9d007330 <CspecA>:
9d007330:	14e0000d 	bnez	a3,9d007368 <i19>
9d007334:	00000000 	nop
9d007338:	00c63021 	addu	a2,a2,a2
9d00733c:	10c00005 	beqz	a2,9d007354 <i20>
9d007340:	00000000 	nop
9d007344:	70cb5820 	clz	t3,a2
9d007348:	00eb3823 	subu	a3,a3,t3
9d00734c:	1000ffd8 	b	9d0072b0 <Clab1>
9d007350:	01663004 	sllv	a2,a2,t3

9d007354 <i20>:
9d007354:	240100ff 	li	at,255
9d007358:	1121001f 	beq	t1,at,9d0073d8 <Cnan>
9d00735c:	00000000 	nop
9d007360:	10000015 	b	9d0073b8 <Czer>
9d007364:	00000000 	nop

9d007368 <i19>:
9d007368:	00c66021 	addu	t4,a2,a2
9d00736c:	1580001a 	bnez	t4,9d0073d8 <Cnan>
9d007370:	00000000 	nop
9d007374:	15200004 	bnez	t1,9d007388 <i21>
9d007378:	00000000 	nop
9d00737c:	01086021 	addu	t4,t0,t0
9d007380:	11800015 	beqz	t4,9d0073d8 <Cnan>
9d007384:	00000000 	nop

9d007388 <i21>:
9d007388:	240100ff 	li	at,255
9d00738c:	1521000f 	bne	t1,at,9d0073cc <Cinf>
9d007390:	00000000 	nop

9d007394 <CspecB>:
9d007394:	1520000a 	bnez	t1,9d0073c0 <i22>
9d007398:	00000000 	nop
9d00739c:	01084021 	addu	t0,t0,t0
9d0073a0:	11000005 	beqz	t0,9d0073b8 <Czer>
9d0073a4:	00000000 	nop
9d0073a8:	710b5820 	clz	t3,t0
9d0073ac:	012b4823 	subu	t1,t1,t3
9d0073b0:	1000ffc3 	b	9d0072c0 <Clab2>
9d0073b4:	01684004 	sllv	t0,t0,t3

9d0073b8 <Czer>:
9d0073b8:	1000ffdb 	b	9d007328 <C999>
9d0073bc:	000a1025 	or	v0,zero,t2

9d0073c0 <i22>:
9d0073c0:	01086021 	addu	t4,t0,t0
9d0073c4:	15800004 	bnez	t4,9d0073d8 <Cnan>
9d0073c8:	00000000 	nop

9d0073cc <Cinf>:
9d0073cc:	3c017f80 	lui	at,0x7f80
9d0073d0:	1000ffd5 	b	9d007328 <C999>
9d0073d4:	01411025 	or	v0,t2,at

9d0073d8 <Cnan>:
9d0073d8:	1000ffd3 	b	9d007328 <C999>
9d0073dc:	3c02ffc0 	lui	v0,0xffc0

9d0073e0 <Coveund>:
9d0073e0:	1ce0fffa 	bgtz	a3,9d0073cc <Cinf>
9d0073e4:	00000000 	nop
9d0073e8:	240b0001 	li	t3,1
9d0073ec:	01675823 	subu	t3,t3,a3
9d0073f0:	2d610020 	sltiu	at,t3,32
9d0073f4:	1020fff0 	beqz	at,9d0073b8 <Czer>
9d0073f8:	00000000 	nop
9d0073fc:	240c0020 	li	t4,32
9d007400:	018b6023 	subu	t4,t4,t3
9d007404:	01863804 	sllv	a3,a2,t4
9d007408:	10e00002 	beqz	a3,9d007414 <i25>
9d00740c:	01663006 	srlv	a2,a2,t3
9d007410:	34c60002 	ori	a2,a2,0x2

9d007414 <i25>:
9d007414:	24070000 	li	a3,0
9d007418:	24cc0080 	addiu	t4,a2,128
9d00741c:	0581ffb7 	bgez	t4,9d0072fc <Clab8>
9d007420:	00000000 	nop
9d007424:	1000ffb5 	b	9d0072fc <Clab8>
9d007428:	24070001 	li	a3,1
9d00742c:	00000000 	nop

Disassembly of section .text._sbrk_init:

9d007430 <_sbrk_init>:
9d007430:	27bdffd8 	addiu	sp,sp,-40
9d007434:	afbf0024 	sw	ra,36(sp)
9d007438:	afb40020 	sw	s4,32(sp)
9d00743c:	afb3001c 	sw	s3,28(sp)
9d007440:	afb20018 	sw	s2,24(sp)
9d007444:	afb10014 	sw	s1,20(sp)
9d007448:	afb00010 	sw	s0,16(sp)
9d00744c:	3c10a000 	lui	s0,0xa000
9d007450:	8e020714 	lw	v0,1812(s0)
9d007454:	10400009 	beqz	v0,9d00747c <_sbrk_init+0x4c>
9d007458:	3c12a000 	lui	s2,0xa000
9d00745c:	8fbf0024 	lw	ra,36(sp)
9d007460:	8fb40020 	lw	s4,32(sp)
9d007464:	8fb3001c 	lw	s3,28(sp)
9d007468:	8fb20018 	lw	s2,24(sp)
9d00746c:	8fb10014 	lw	s1,20(sp)
9d007470:	8fb00010 	lw	s0,16(sp)
9d007474:	03e00008 	jr	ra
9d007478:	27bd0028 	addiu	sp,sp,40
9d00747c:	8e43071c 	lw	v1,1820(s2)
9d007480:	5060003d 	beqzl	v1,9d007578 <_sbrk_init+0x148>
9d007484:	3c03a000 	lui	v1,0xa000
9d007488:	3c13a000 	lui	s3,0xa000
9d00748c:	8e620718 	lw	v0,1816(s3)
9d007490:	5040003b 	beqzl	v0,9d007580 <_sbrk_init+0x150>
9d007494:	3c040000 	lui	a0,0x0
9d007498:	00038f82 	srl	s1,v1,0x1e
9d00749c:	0002a782 	srl	s4,v0,0x1e
9d0074a0:	7c65e000 	ext	a1,v1,0x0,0x1d
9d0074a4:	3a310002 	xori	s1,s1,0x2
9d0074a8:	7c44e000 	ext	a0,v0,0x0,0x1d
9d0074ac:	3a940002 	xori	s4,s4,0x2
9d0074b0:	00b1180a 	movz	v1,a1,s1
9d0074b4:	00608821 	move	s1,v1
9d0074b8:	0094100a 	movz	v0,a0,s4
9d0074bc:	0f4023d7 	jal	9d008f5c <_stub_sbd_memlayout>
9d0074c0:	0040a021 	move	s4,v0
9d0074c4:	8c430000 	lw	v1,0(v0)
9d0074c8:	8c440004 	lw	a0,4(v0)
9d0074cc:	0223102b 	sltu	v0,s1,v1
9d0074d0:	10400024 	beqz	v0,9d007564 <_sbrk_init+0x134>
9d0074d4:	00642021 	addu	a0,v1,a0
9d0074d8:	3c02a000 	lui	v0,0xa000
9d0074dc:	24420028 	addiu	v0,v0,40
9d0074e0:	7c42e000 	ext	v0,v0,0x0,0x1d
9d0074e4:	0062102b 	sltu	v0,v1,v0
9d0074e8:	1440ffdd 	bnez	v0,9d007460 <_sbrk_init+0x30>
9d0074ec:	8fbf0024 	lw	ra,36(sp)
9d0074f0:	0283102b 	sltu	v0,s4,v1
9d0074f4:	14400005 	bnez	v0,9d00750c <_sbrk_init+0xdc>
9d0074f8:	0064102b 	sltu	v0,v1,a0
9d0074fc:	0284102b 	sltu	v0,s4,a0
9d007500:	54400004 	bnezl	v0,9d007514 <_sbrk_init+0xe4>
9d007504:	02802021 	move	a0,s4
9d007508:	0064102b 	sltu	v0,v1,a0
9d00750c:	1040ffd4 	beqz	v0,9d007460 <_sbrk_init+0x30>
9d007510:	8fbf0024 	lw	ra,36(sp)
9d007514:	3c02a000 	lui	v0,0xa000
9d007518:	24420028 	addiu	v0,v0,40
9d00751c:	00021742 	srl	v0,v0,0x1d
9d007520:	24050005 	li	a1,5
9d007524:	1445001b 	bne	v0,a1,9d007594 <_sbrk_init+0x164>
9d007528:	24050004 	li	a1,4
9d00752c:	3c02a000 	lui	v0,0xa000
9d007530:	00621825 	or	v1,v1,v0
9d007534:	00822025 	or	a0,a0,v0
9d007538:	ae43071c 	sw	v1,1820(s2)
9d00753c:	ae640718 	sw	a0,1816(s3)
9d007540:	ae030714 	sw	v1,1812(s0)
9d007544:	8fbf0024 	lw	ra,36(sp)
9d007548:	8fb40020 	lw	s4,32(sp)
9d00754c:	8fb3001c 	lw	s3,28(sp)
9d007550:	8fb20018 	lw	s2,24(sp)
9d007554:	8fb10014 	lw	s1,20(sp)
9d007558:	8fb00010 	lw	s0,16(sp)
9d00755c:	03e00008 	jr	ra
9d007560:	27bd0028 	addiu	sp,sp,40
9d007564:	0224102b 	sltu	v0,s1,a0
9d007568:	1040ffdc 	beqz	v0,9d0074dc <_sbrk_init+0xac>
9d00756c:	3c02a000 	lui	v0,0xa000
9d007570:	0b401d3c 	j	9d0074f0 <_sbrk_init+0xc0>
9d007574:	02201821 	move	v1,s1
9d007578:	0b401d22 	j	9d007488 <_sbrk_init+0x58>
9d00757c:	24630748 	addiu	v1,v1,1864
9d007580:	24840000 	addiu	a0,a0,0
9d007584:	3c02a000 	lui	v0,0xa000
9d007588:	24420748 	addiu	v0,v0,1864
9d00758c:	0b401d26 	j	9d007498 <_sbrk_init+0x68>
9d007590:	00441021 	addu	v0,v0,a0
9d007594:	14450007 	bne	v0,a1,9d0075b4 <_sbrk_init+0x184>
9d007598:	3c028000 	lui	v0,0x8000
9d00759c:	00621825 	or	v1,v1,v0
9d0075a0:	00821025 	or	v0,a0,v0
9d0075a4:	ae43071c 	sw	v1,1820(s2)
9d0075a8:	ae620718 	sw	v0,1816(s3)
9d0075ac:	0b401d51 	j	9d007544 <_sbrk_init+0x114>
9d0075b0:	ae030714 	sw	v1,1812(s0)
9d0075b4:	ae44071c 	sw	a0,1820(s2)
9d0075b8:	00801821 	move	v1,a0
9d0075bc:	0b401d51 	j	9d007544 <_sbrk_init+0x114>
9d0075c0:	ae030714 	sw	v1,1812(s0)

Disassembly of section .text.powf:

9d0075c4 <powf>:
9d0075c4:	27bdffd8 	addiu	sp,sp,-40
9d0075c8:	afbf0024 	sw	ra,36(sp)
9d0075cc:	afb20020 	sw	s2,32(sp)
9d0075d0:	afb1001c 	sw	s1,28(sp)
9d0075d4:	afb00018 	sw	s0,24(sp)
9d0075d8:	3c11a000 	lui	s1,0xa000
9d0075dc:	8e22073c 	lw	v0,1852(s1)
9d0075e0:	00808021 	move	s0,a0
9d0075e4:	30420001 	andi	v0,v0,0x1
9d0075e8:	00a09021 	move	s2,a1
9d0075ec:	3c039d01 	lui	v1,0x9d01
9d0075f0:	8c6390cc 	lw	v1,-28468(v1)
9d0075f4:	10400015 	beqz	v0,9d00764c <powf+0x88>
9d0075f8:	afa30010 	sw	v1,16(sp)
9d0075fc:	0f4020fa 	jal	9d0083e8 <.LFE3>
9d007600:	00000000 	nop
9d007604:	00402021 	move	a0,v0
9d007608:	0f4023ec 	jal	9d008fb0 <isinfl>
9d00760c:	00602821 	move	a1,v1
9d007610:	14400005 	bnez	v0,9d007628 <powf+0x64>
9d007614:	02002021 	move	a0,s0
9d007618:	0f40217a 	jal	9d0085e8 <__eqsf2>
9d00761c:	00002821 	move	a1,zero
9d007620:	04400023 	bltz	v0,9d0076b0 <powf+0xec>
9d007624:	02002021 	move	a0,s0
9d007628:	0f40217a 	jal	9d0085e8 <__eqsf2>
9d00762c:	00002821 	move	a1,zero
9d007630:	14400007 	bnez	v0,9d007650 <powf+0x8c>
9d007634:	02002021 	move	a0,s0
9d007638:	02402021 	move	a0,s2
9d00763c:	0f40217a 	jal	9d0085e8 <__eqsf2>
9d007640:	00002821 	move	a1,zero
9d007644:	1840002a 	blez	v0,9d0076f0 <powf+0x12c>
9d007648:	00002021 	move	a0,zero
9d00764c:	02002021 	move	a0,s0
9d007650:	0f4017f5 	jal	9d005fd4 <__mchp_powf>
9d007654:	02402821 	move	a1,s2
9d007658:	00408021 	move	s0,v0
9d00765c:	8e22073c 	lw	v0,1852(s1)
9d007660:	30420001 	andi	v0,v0,0x1
9d007664:	1040000c 	beqz	v0,9d007698 <powf+0xd4>
9d007668:	02001021 	move	v0,s0
9d00766c:	0f4020fa 	jal	9d0083e8 <.LFE3>
9d007670:	02002021 	move	a0,s0
9d007674:	00402021 	move	a0,v0
9d007678:	0f4023ec 	jal	9d008fb0 <isinfl>
9d00767c:	00602821 	move	a1,v1
9d007680:	10400005 	beqz	v0,9d007698 <powf+0xd4>
9d007684:	02001021 	move	v0,s0
9d007688:	24030022 	li	v1,34
9d00768c:	3c02a000 	lui	v0,0xa000
9d007690:	ac430024 	sw	v1,36(v0)
9d007694:	02001021 	move	v0,s0
9d007698:	8fbf0024 	lw	ra,36(sp)
9d00769c:	8fb20020 	lw	s2,32(sp)
9d0076a0:	8fb1001c 	lw	s1,28(sp)
9d0076a4:	8fb00018 	lw	s0,24(sp)
9d0076a8:	03e00008 	jr	ra
9d0076ac:	27bd0028 	addiu	sp,sp,40
9d0076b0:	0f4020fa 	jal	9d0083e8 <.LFE3>
9d0076b4:	02402021 	move	a0,s2
9d0076b8:	00402021 	move	a0,v0
9d0076bc:	0f4023ec 	jal	9d008fb0 <isinfl>
9d0076c0:	00602821 	move	a1,v1
9d0076c4:	1440ffd8 	bnez	v0,9d007628 <powf+0x64>
9d0076c8:	02002021 	move	a0,s0
9d0076cc:	27a50010 	addiu	a1,sp,16
9d0076d0:	0f40205e 	jal	9d008178 <fpmodf>
9d0076d4:	02402021 	move	a0,s2
9d0076d8:	00402021 	move	a0,v0
9d0076dc:	0f40217a 	jal	9d0085e8 <__eqsf2>
9d0076e0:	00002821 	move	a1,zero
9d0076e4:	1040ffd0 	beqz	v0,9d007628 <powf+0x64>
9d0076e8:	02002021 	move	a0,s0
9d0076ec:	00002021 	move	a0,zero
9d0076f0:	3c05fff8 	lui	a1,0xfff8
9d0076f4:	24030021 	li	v1,33
9d0076f8:	3c02a000 	lui	v0,0xa000
9d0076fc:	0f401f6f 	jal	9d007dbc <__truncdfsf2>
9d007700:	ac430024 	sw	v1,36(v0)
9d007704:	0b401da5 	j	9d007694 <powf+0xd0>
9d007708:	00408021 	move	s0,v0

Disassembly of section .text._outcnvrt:

9d00770c <_outcnvrt>:
9d00770c:	27bdffd8 	addiu	sp,sp,-40
9d007710:	afbf0024 	sw	ra,36(sp)
9d007714:	afb40020 	sw	s4,32(sp)
9d007718:	afb3001c 	sw	s3,28(sp)
9d00771c:	afb20018 	sw	s2,24(sp)
9d007720:	afb10014 	sw	s1,20(sp)
9d007724:	afb00010 	sw	s0,16(sp)
9d007728:	97a20038 	lhu	v0,56(sp)
9d00772c:	00809821 	move	s3,a0
9d007730:	00a0a021 	move	s4,a1
9d007734:	30420008 	andi	v0,v0,0x8
9d007738:	00c08021 	move	s0,a2
9d00773c:	10400014 	beqz	v0,9d007790 <_outcnvrt+0x84>
9d007740:	00e08821 	move	s1,a3
9d007744:	00a02021 	move	a0,a1
9d007748:	00c02821 	move	a1,a2
9d00774c:	0f4022ae 	jal	9d008ab8 <__sputn>
9d007750:	02603021 	move	a2,s3
9d007754:	2403ffff 	li	v1,-1
9d007758:	10430003 	beq	v0,v1,9d007768 <_outcnvrt+0x5c>
9d00775c:	0211902a 	slt	s2,s0,s1
9d007760:	1640001c 	bnez	s2,9d0077d4 <_outcnvrt+0xc8>
9d007764:	02602021 	move	a0,s3
9d007768:	02201021 	move	v0,s1
9d00776c:	0212100a 	movz	v0,s0,s2
9d007770:	8fbf0024 	lw	ra,36(sp)
9d007774:	8fb40020 	lw	s4,32(sp)
9d007778:	8fb3001c 	lw	s3,28(sp)
9d00777c:	8fb20018 	lw	s2,24(sp)
9d007780:	8fb10014 	lw	s1,20(sp)
9d007784:	8fb00010 	lw	s0,16(sp)
9d007788:	03e00008 	jr	ra
9d00778c:	27bd0028 	addiu	sp,sp,40
9d007790:	00c7902a 	slt	s2,a2,a3
9d007794:	1640001d 	bnez	s2,9d00780c <_outcnvrt+0x100>
9d007798:	00e62823 	subu	a1,a3,a2
9d00779c:	02802021 	move	a0,s4
9d0077a0:	02002821 	move	a1,s0
9d0077a4:	0f4022ae 	jal	9d008ab8 <__sputn>
9d0077a8:	02603021 	move	a2,s3
9d0077ac:	02201021 	move	v0,s1
9d0077b0:	0212100a 	movz	v0,s0,s2
9d0077b4:	8fbf0024 	lw	ra,36(sp)
9d0077b8:	8fb40020 	lw	s4,32(sp)
9d0077bc:	8fb3001c 	lw	s3,28(sp)
9d0077c0:	8fb20018 	lw	s2,24(sp)
9d0077c4:	8fb10014 	lw	s1,20(sp)
9d0077c8:	8fb00010 	lw	s0,16(sp)
9d0077cc:	03e00008 	jr	ra
9d0077d0:	27bd0028 	addiu	sp,sp,40
9d0077d4:	02302823 	subu	a1,s1,s0
9d0077d8:	3c069d01 	lui	a2,0x9d01
9d0077dc:	0f4021a1 	jal	9d008684 <repl>
9d0077e0:	24c68c60 	addiu	a2,a2,-29600
9d0077e4:	02201021 	move	v0,s1
9d0077e8:	0212100a 	movz	v0,s0,s2
9d0077ec:	8fbf0024 	lw	ra,36(sp)
9d0077f0:	8fb40020 	lw	s4,32(sp)
9d0077f4:	8fb3001c 	lw	s3,28(sp)
9d0077f8:	8fb20018 	lw	s2,24(sp)
9d0077fc:	8fb10014 	lw	s1,20(sp)
9d007800:	8fb00010 	lw	s0,16(sp)
9d007804:	03e00008 	jr	ra
9d007808:	27bd0028 	addiu	sp,sp,40
9d00780c:	3c069d01 	lui	a2,0x9d01
9d007810:	0f4021a1 	jal	9d008684 <repl>
9d007814:	24c68c60 	addiu	a2,a2,-29600
9d007818:	2403ffff 	li	v1,-1
9d00781c:	1443ffdf 	bne	v0,v1,9d00779c <_outcnvrt+0x90>
9d007820:	02201021 	move	v0,s1
9d007824:	0212100a 	movz	v0,s0,s2
9d007828:	8fbf0024 	lw	ra,36(sp)
9d00782c:	8fb40020 	lw	s4,32(sp)
9d007830:	8fb3001c 	lw	s3,28(sp)
9d007834:	8fb20018 	lw	s2,24(sp)
9d007838:	8fb10014 	lw	s1,20(sp)
9d00783c:	8fb00010 	lw	s0,16(sp)
9d007840:	03e00008 	jr	ra
9d007844:	27bd0028 	addiu	sp,sp,40

Disassembly of section .text.dpcmp:

9d007848 <__eqdf2>:
9d007848:	2409fffe 00055040 00075840 01645825     ...$@P..@X..%Xd.
9d007858:	01665825 014b5025 15400003 00000000     %Xf.%PK...@.....
9d007868:	1000003c 24020000                       <......$

9d007870 <i56>:
9d007870:	10800002 	beqz	a0,9d00787c <i57>
9d007874:	00054040 	sll	t0,a1,0x1
9d007878:	25080001 	addiu	t0,t0,1

9d00787c <i57>:
9d00787c:	3c01ffe0 	lui	at,0xffe0
9d007880:	34210001 	ori	at,at,0x1
9d007884:	0101082b 	sltu	at,t0,at
9d007888:	10200037 	beqz	at,9d007968 <Lnan>
9d00788c:	00000000 	nop
9d007890:	10c00002 	beqz	a2,9d00789c <i58>
9d007894:	00074040 	sll	t0,a3,0x1
9d007898:	25080001 	addiu	t0,t0,1

9d00789c <i58>:
9d00789c:	3c01ffe0 	lui	at,0xffe0
9d0078a0:	34210001 	ori	at,at,0x1
9d0078a4:	0101082b 	sltu	at,t0,at
9d0078a8:	1020002f 	beqz	at,9d007968 <Lnan>
9d0078ac:	00000000 	nop
9d0078b0:	04a10016 	bgez	a1,9d00790c <i59>
9d0078b4:	00000000 	nop
9d0078b8:	04e00003 	bltz	a3,9d0078c8 <i60>
9d0078bc:	00000000 	nop
9d0078c0:	10000026 	b	9d00795c <L999>
9d0078c4:	2402ffff 	li	v0,-1

9d0078c8 <i60>:
9d0078c8:	0086502b 	sltu	t2,a0,a2
9d0078cc:	00862023 	subu	a0,a0,a2
9d0078d0:	00aa582b 	sltu	t3,a1,t2
9d0078d4:	00aa2823 	subu	a1,a1,t2
9d0078d8:	00a7502b 	sltu	t2,a1,a3
9d0078dc:	014b5025 	or	t2,t2,t3
9d0078e0:	11400003 	beqz	t2,9d0078f0 <i61>
9d0078e4:	00a72823 	subu	a1,a1,a3
9d0078e8:	1000001c 	b	9d00795c <L999>
9d0078ec:	24020001 	li	v0,1

9d0078f0 <i61>:
9d0078f0:	00a45025 	or	t2,a1,a0
9d0078f4:	11400003 	beqz	t2,9d007904 <i62>
9d0078f8:	00000000 	nop
9d0078fc:	10000017 	b	9d00795c <L999>
9d007900:	2402ffff 	li	v0,-1

9d007904 <i62>:
9d007904:	10000015 	b	9d00795c <L999>
9d007908:	24020000 	li	v0,0

9d00790c <i59>:
9d00790c:	04e10003 	bgez	a3,9d00791c <i63>
9d007910:	00000000 	nop
9d007914:	10000011 	b	9d00795c <L999>
9d007918:	24020001 	li	v0,1

9d00791c <i63>:
9d00791c:	0086502b 	sltu	t2,a0,a2
9d007920:	00862023 	subu	a0,a0,a2
9d007924:	00aa582b 	sltu	t3,a1,t2
9d007928:	00aa2823 	subu	a1,a1,t2
9d00792c:	00a7502b 	sltu	t2,a1,a3
9d007930:	014b5025 	or	t2,t2,t3
9d007934:	11400003 	beqz	t2,9d007944 <i64>
9d007938:	00a72823 	subu	a1,a1,a3
9d00793c:	10000007 	b	9d00795c <L999>
9d007940:	2402ffff 	li	v0,-1

9d007944 <i64>:
9d007944:	00a45025 	or	t2,a1,a0
9d007948:	11400003 	beqz	t2,9d007958 <i65>
9d00794c:	00000000 	nop
9d007950:	10000002 	b	9d00795c <L999>
9d007954:	24020001 	li	v0,1

9d007958 <i65>:
9d007958:	24020000 	li	v0,0

9d00795c <L999>:
9d00795c:	03e00008 	jr	ra
9d007960:	00000000 	nop
9d007964:	00000000 	nop

9d007968 <Lnan>:
9d007968:	1000fffc 	b	9d00795c <L999>
9d00796c:	00091025 	or	v0,zero,t1
9d007970:	00000000 	nop

Disassembly of section .text.libm:

9d007974 <fpsin>:
9d007974:	27bdfff0 	addiu	sp,sp,-16
9d007978:	afbf0000 	sw	ra,0(sp)
9d00797c:	0f401eea 	jal	9d007ba8 <fpreduct>
9d007980:	afa40004 	sw	a0,4(sp)
9d007984:	00185025 	or	t2,zero,t8
9d007988:	00034825 	or	t1,zero,v1
9d00798c:	00024025 	or	t0,zero,v0
9d007990:	05210003 	bgez	t1,9d0079a0 <fpsin+0x2c>
9d007994:	8fa40004 	lw	a0,4(sp)
9d007998:	10000039 	b	9d007a80 <fpsin+0x10c>
9d00799c:	00081025 	or	v0,zero,t0
9d0079a0:	000a6740 	sll	t4,t2,0x1d
9d0079a4:	008c2026 	xor	a0,a0,t4
9d0079a8:	3c018000 	lui	at,0x8000
9d0079ac:	00812024 	and	a0,a0,at
9d0079b0:	01080019 	multu	t0,t0
9d0079b4:	00003810 	mfhi	a3
9d0079b8:	2405007e 	li	a1,126
9d0079bc:	00a92823 	subu	a1,a1,t1
9d0079c0:	00052840 	sll	a1,a1,0x1
9d0079c4:	2ca10020 	sltiu	at,a1,32
9d0079c8:	14200002 	bnez	at,9d0079d4 <fpsin+0x60>
9d0079cc:	00000000 	nop
9d0079d0:	34070000 	li	a3,0x0
9d0079d4:	00a73806 	srlv	a3,a3,a1
9d0079d8:	254cffff 	addiu	t4,t2,-1
9d0079dc:	318c0002 	andi	t4,t4,0x2
9d0079e0:	11800013 	beqz	t4,9d007a30 <fpsin+0xbc>
9d0079e4:	00000000 	nop
9d0079e8:	3c0ba000 	lui	t3,0xa000
9d0079ec:	256b06d8 	addiu	t3,t3,1752
9d0079f0:	8d650000 	lw	a1,0(t3)
9d0079f4:	256b0004 	addiu	t3,t3,4
9d0079f8:	00e50019 	multu	a3,a1
9d0079fc:	00002810 	mfhi	a1
9d007a00:	8d660000 	lw	a2,0(t3)
9d007a04:	256b0004 	addiu	t3,t3,4
9d007a08:	04c1fffb 	bgez	a2,9d0079f8 <fpsin+0x84>
9d007a0c:	00c52823 	subu	a1,a2,a1
9d007a10:	18a00003 	blez	a1,9d007a20 <fpsin+0xac>
9d007a14:	00000000 	nop
9d007a18:	00052840 	sll	a1,a1,0x1
9d007a1c:	2529ffff 	addiu	t1,t1,-1
9d007a20:	25290001 	addiu	t1,t1,1
9d007a24:	01050019 	multu	t0,a1
9d007a28:	1000000c 	b	9d007a5c <fpsin+0xe8>
9d007a2c:	00004010 	mfhi	t0
9d007a30:	3c0ba000 	lui	t3,0xa000
9d007a34:	256b06e8 	addiu	t3,t3,1768
9d007a38:	8d680000 	lw	t0,0(t3)
9d007a3c:	256b0004 	addiu	t3,t3,4
9d007a40:	00e80019 	multu	a3,t0
9d007a44:	00004010 	mfhi	t0
9d007a48:	8d660000 	lw	a2,0(t3)
9d007a4c:	256b0004 	addiu	t3,t3,4
9d007a50:	04c1fffb 	bgez	a2,9d007a40 <fpsin+0xcc>
9d007a54:	00c84023 	subu	t0,a2,t0
9d007a58:	2409007f 	li	t1,127
9d007a5c:	19000003 	blez	t0,9d007a6c <fpsin+0xf8>
9d007a60:	00000000 	nop
9d007a64:	00084040 	sll	t0,t0,0x1
9d007a68:	2529ffff 	addiu	t1,t1,-1
9d007a6c:	00084040 	sll	t0,t0,0x1
9d007a70:	00084242 	srl	t0,t0,0x9
9d007a74:	000965c0 	sll	t4,t1,0x17
9d007a78:	010c4025 	or	t0,t0,t4
9d007a7c:	01041025 	or	v0,t0,a0
9d007a80:	8fbf0000 	lw	ra,0(sp)
9d007a84:	03e00008 	jr	ra
9d007a88:	27bd0010 	addiu	sp,sp,16
9d007a8c:	00000000 	nop

9d007a90 <cosf>:
9d007a90:	27bdfff0 	addiu	sp,sp,-16
9d007a94:	afbf0000 	sw	ra,0(sp)
9d007a98:	0f401eea 	jal	9d007ba8 <fpreduct>
9d007a9c:	afa40004 	sw	a0,4(sp)
9d007aa0:	00185025 	or	t2,zero,t8
9d007aa4:	00034825 	or	t1,zero,v1
9d007aa8:	00024025 	or	t0,zero,v0
9d007aac:	05210003 	bgez	t1,9d007abc <cosf+0x2c>
9d007ab0:	8fa40004 	lw	a0,4(sp)
9d007ab4:	10000038 	b	9d007b98 <cosf+0x108>
9d007ab8:	00081025 	or	v0,zero,t0
9d007abc:	25440002 	addiu	a0,t2,2
9d007ac0:	00042082 	srl	a0,a0,0x2
9d007ac4:	000427c0 	sll	a0,a0,0x1f
9d007ac8:	01080019 	multu	t0,t0
9d007acc:	00003810 	mfhi	a3
9d007ad0:	2405007e 	li	a1,126
9d007ad4:	00a92823 	subu	a1,a1,t1
9d007ad8:	00052840 	sll	a1,a1,0x1
9d007adc:	2ca10020 	sltiu	at,a1,32
9d007ae0:	14200002 	bnez	at,9d007aec <cosf+0x5c>
9d007ae4:	00000000 	nop
9d007ae8:	34070000 	li	a3,0x0
9d007aec:	00a73806 	srlv	a3,a3,a1
9d007af0:	254cffff 	addiu	t4,t2,-1
9d007af4:	318c0002 	andi	t4,t4,0x2
9d007af8:	1180000d 	beqz	t4,9d007b30 <cosf+0xa0>
9d007afc:	00000000 	nop
9d007b00:	3c0ba000 	lui	t3,0xa000
9d007b04:	256b06e8 	addiu	t3,t3,1768
9d007b08:	8d680000 	lw	t0,0(t3)
9d007b0c:	256b0004 	addiu	t3,t3,4
9d007b10:	00e80019 	multu	a3,t0
9d007b14:	00004010 	mfhi	t0
9d007b18:	8d660000 	lw	a2,0(t3)
9d007b1c:	256b0004 	addiu	t3,t3,4
9d007b20:	04c1fffb 	bgez	a2,9d007b10 <cosf+0x80>
9d007b24:	00c84023 	subu	t0,a2,t0
9d007b28:	10000012 	b	9d007b74 <cosf+0xe4>
9d007b2c:	2409007f 	li	t1,127
9d007b30:	3c0ba000 	lui	t3,0xa000
9d007b34:	256b06d8 	addiu	t3,t3,1752
9d007b38:	8d650000 	lw	a1,0(t3)
9d007b3c:	256b0004 	addiu	t3,t3,4
9d007b40:	00e50019 	multu	a3,a1
9d007b44:	00002810 	mfhi	a1
9d007b48:	8d660000 	lw	a2,0(t3)
9d007b4c:	256b0004 	addiu	t3,t3,4
9d007b50:	04c1fffb 	bgez	a2,9d007b40 <cosf+0xb0>
9d007b54:	00c52823 	subu	a1,a2,a1
9d007b58:	18a00003 	blez	a1,9d007b68 <cosf+0xd8>
9d007b5c:	00000000 	nop
9d007b60:	00052840 	sll	a1,a1,0x1
9d007b64:	2529ffff 	addiu	t1,t1,-1
9d007b68:	25290001 	addiu	t1,t1,1
9d007b6c:	01050019 	multu	t0,a1
9d007b70:	00004010 	mfhi	t0
9d007b74:	19000003 	blez	t0,9d007b84 <cosf+0xf4>
9d007b78:	00000000 	nop
9d007b7c:	00084040 	sll	t0,t0,0x1
9d007b80:	2529ffff 	addiu	t1,t1,-1
9d007b84:	00084040 	sll	t0,t0,0x1
9d007b88:	00084242 	srl	t0,t0,0x9
9d007b8c:	000965c0 	sll	t4,t1,0x17
9d007b90:	010c4025 	or	t0,t0,t4
9d007b94:	01041025 	or	v0,t0,a0
9d007b98:	8fbf0000 	lw	ra,0(sp)
9d007b9c:	03e00008 	jr	ra
9d007ba0:	27bd0010 	addiu	sp,sp,16
9d007ba4:	00000000 	nop

9d007ba8 <fpreduct>:
9d007ba8:	000435c2 30c600ff 00042a00 3c018000     .5.....0.*.....<
9d007bb8:	00a12825 24070000 24c8ff82 05000032     %(.....$...$2...
9d007bc8:	00000000 29010020 10200034 00000000     .... ..)4. .....
9d007bd8:	00052882 24090000 3c0b10b4 356b611a     .(.....$...<.ak5
9d007be8:	3c0a6487 354aed51 00073840 24e70001     .d.<Q.J5@8.....$
9d007bf8:	0120602a 01294821 00a52821 00ac2821     *` .!H).!(..!(..
9d007c08:	012b602b 012b4823 00ac682b 00ac2823     +`+.#H+.+h..#(..
9d007c18:	00aa602b 018d6025 11800006 00aa2823     +`..%`......#(..
9d007c28:	24e7ffff 012b4821 012b602b 00aa2821     ...$!H+.+`+.!(..
9d007c38:	00ac2821 2508ffff 0501ffeb 00000000     !(.....%........
9d007c48:	30ec0001 11800007 00000000 0169602b     ...0........+`i.
9d007c58:	01695823 014c5023 01455023 000b4825     #Xi.#PL.#PE.%H..
9d007c68:	000a2825 2406007f 04a00007 00000000     %(.....$........
9d007c78:	0120602a 01294821 00a52821 00ac2821     *` .!H).!(..!(..
9d007c88:	1000fff9 24c6ffff 00051025 00061825     .......$%...%...
9d007c98:	0007c025 03e00008 00000000 2406ffff     %..............$
9d007ca8:	1000fff9 3c05ffc0 00000000              .......<....

Disassembly of section .text.malloc_trim:

9d007cb4 <malloc_trim>:
9d007cb4:	27bdffe0 	addiu	sp,sp,-32
9d007cb8:	afbf001c 	sw	ra,28(sp)
9d007cbc:	afb20018 	sw	s2,24(sp)
9d007cc0:	afb10014 	sw	s1,20(sp)
9d007cc4:	afb00010 	sw	s0,16(sp)
9d007cc8:	0f402440 	jal	9d009100 <getpagesize>
9d007ccc:	00809021 	move	s2,a0
9d007cd0:	3c10a000 	lui	s0,0xa000
9d007cd4:	26100030 	addiu	s0,s0,48
9d007cd8:	8e030008 	lw	v1,8(s0)
9d007cdc:	8c710004 	lw	s1,4(v1)
9d007ce0:	2403fffc 	li	v1,-4
9d007ce4:	02238824 	and	s1,s1,v1
9d007ce8:	02322023 	subu	a0,s1,s2
9d007cec:	2484ffef 	addiu	a0,a0,-17
9d007cf0:	00822021 	addu	a0,a0,v0
9d007cf4:	0082001b 	divu	zero,a0,v0
9d007cf8:	004001f4 	teq	v0,zero,0x7
9d007cfc:	00009012 	mflo	s2
9d007d00:	2652ffff 	addiu	s2,s2,-1
9d007d04:	72429002 	mul	s2,s2,v0
9d007d08:	0242102a 	slt	v0,s2,v0
9d007d0c:	10400008 	beqz	v0,9d007d30 <malloc_trim+0x7c>
9d007d10:	00000000 	nop
9d007d14:	00001021 	move	v0,zero
9d007d18:	8fbf001c 	lw	ra,28(sp)
9d007d1c:	8fb20018 	lw	s2,24(sp)
9d007d20:	8fb10014 	lw	s1,20(sp)
9d007d24:	8fb00010 	lw	s0,16(sp)
9d007d28:	03e00008 	jr	ra
9d007d2c:	27bd0020 	addiu	sp,sp,32
9d007d30:	0f402323 	jal	9d008c8c <sbrk>
9d007d34:	00002021 	move	a0,zero
9d007d38:	8e030008 	lw	v1,8(s0)
9d007d3c:	00711821 	addu	v1,v1,s1
9d007d40:	1443fff5 	bne	v0,v1,9d007d18 <malloc_trim+0x64>
9d007d44:	00001021 	move	v0,zero
9d007d48:	0f402323 	jal	9d008c8c <sbrk>
9d007d4c:	00122023 	negu	a0,s2
9d007d50:	2403ffff 	li	v1,-1
9d007d54:	1043000a 	beq	v0,v1,9d007d80 <malloc_trim+0xcc>
9d007d58:	3c02a000 	lui	v0,0xa000
9d007d5c:	8c4406a4 	lw	a0,1700(v0)
9d007d60:	8e030008 	lw	v1,8(s0)
9d007d64:	02328823 	subu	s1,s1,s2
9d007d68:	36310001 	ori	s1,s1,0x1
9d007d6c:	00929023 	subu	s2,a0,s2
9d007d70:	ac710004 	sw	s1,4(v1)
9d007d74:	ac5206a4 	sw	s2,1700(v0)
9d007d78:	0b401f46 	j	9d007d18 <malloc_trim+0x64>
9d007d7c:	24020001 	li	v0,1
9d007d80:	0f402323 	jal	9d008c8c <sbrk>
9d007d84:	00002021 	move	a0,zero
9d007d88:	8e030008 	lw	v1,8(s0)
9d007d8c:	00432023 	subu	a0,v0,v1
9d007d90:	28850010 	slti	a1,a0,16
9d007d94:	54a0ffe0 	bnezl	a1,9d007d18 <malloc_trim+0x64>
9d007d98:	00001021 	move	v0,zero
9d007d9c:	3c05a000 	lui	a1,0xa000
9d007da0:	8ca50028 	lw	a1,40(a1)
9d007da4:	34840001 	ori	a0,a0,0x1
9d007da8:	00451023 	subu	v0,v0,a1
9d007dac:	3c05a000 	lui	a1,0xa000
9d007db0:	aca206a4 	sw	v0,1700(a1)
9d007db4:	0b401f45 	j	9d007d14 <malloc_trim+0x60>
9d007db8:	ac640004 	sw	a0,4(v1)

Disassembly of section .text.dptofp:

9d007dbc <__truncdfsf2>:
9d007dbc:	00053ac0 00045d42 00eb3825 000432c0     .:..B]..%8...2..
9d007dcc:	3c018000 00e13825 3c018000 00a14824     ...<%8.....<$H..
9d007ddc:	00054040 00084542 2508fc80 250bffff     @@..BE.....%...%
9d007dec:	2d6100fe 10200012 00000000              ..a-.. .....

9d007df8 <Hlab1>:
9d007df8:	10c00002 	beqz	a2,9d007e04 <i45>
9d007dfc:	00000000 	nop
9d007e00:	34e70001 	ori	a3,a3,0x1

9d007e04 <i45>:
9d007e04:	24e70080 	addiu	a3,a3,128
9d007e08:	2ceb0080 	sltiu	t3,a3,128
9d007e0c:	010b4021 	addu	t0,t0,t3
9d007e10:	00075a02 	srl	t3,a3,0x8
9d007e14:	316b0001 	andi	t3,t3,0x1
9d007e18:	00eb3823 	subu	a3,a3,t3
9d007e1c:	00073840 	sll	a3,a3,0x1
9d007e20:	00073a42 	srl	a3,a3,0x9
9d007e24:	00085dc0 	sll	t3,t0,0x17
9d007e28:	00eb3825 	or	a3,a3,t3
9d007e2c:	00e91025 	or	v0,a3,t1

9d007e30 <H999>:
9d007e30:	03e00008 	jr	ra
9d007e34:	00000000 	nop
9d007e38:	00000000 	nop

9d007e3c <Hspec>:
9d007e3c:	2401047f 	li	at,1151
9d007e40:	15010007 	bne	t0,at,9d007e60 <i46>
9d007e44:	00000000 	nop
9d007e48:	00075840 	sll	t3,a3,0x1
9d007e4c:	01665825 	or	t3,t3,a2
9d007e50:	11600003 	beqz	t3,9d007e60 <i46>
9d007e54:	00000000 	nop
9d007e58:	1000fff5 	b	9d007e30 <H999>
9d007e5c:	3c02ffc0 	lui	v0,0xffc0

9d007e60 <i46>:
9d007e60:	290100ff 	slti	at,t0,255
9d007e64:	14200004 	bnez	at,9d007e78 <i48>
9d007e68:	00000000 	nop
9d007e6c:	3c017f80 	lui	at,0x7f80
9d007e70:	1000ffef 	b	9d007e30 <H999>
9d007e74:	01211025 	or	v0,t1,at

9d007e78 <i48>:
9d007e78:	240a0001 	li	t2,1
9d007e7c:	01485023 	subu	t2,t2,t0
9d007e80:	2d410020 	sltiu	at,t2,32
9d007e84:	14200003 	bnez	at,9d007e94 <i49>
9d007e88:	00000000 	nop
9d007e8c:	1000ffe8 	b	9d007e30 <H999>
9d007e90:	00091025 	or	v0,zero,t1

9d007e94 <i49>:
9d007e94:	240c0020 	li	t4,32
9d007e98:	018a6023 	subu	t4,t4,t2
9d007e9c:	01875804 	sllv	t3,a3,t4
9d007ea0:	00cb3025 	or	a2,a2,t3
9d007ea4:	01473806 	srlv	a3,a3,t2
9d007ea8:	24080000 	li	t0,0
9d007eac:	3c018000 	lui	at,0x8000
9d007eb0:	1000ffd1 	b	9d007df8 <Hlab1>
9d007eb4:	00e13825 	or	a3,a3,at
9d007eb8:	00000000 	nop

Disassembly of section .text._flsbuf_simple:

9d007ebc <_flsbuf_simple>:
9d007ebc:	27bdffd8 	addiu	sp,sp,-40
9d007ec0:	afbf0024 	sw	ra,36(sp)
9d007ec4:	afb10020 	sw	s1,32(sp)
9d007ec8:	afb0001c 	sw	s0,28(sp)
9d007ecc:	00a08021 	move	s0,a1
9d007ed0:	8ca2000c 	lw	v0,12(a1)
9d007ed4:	1040002d 	beqz	v0,9d007f8c <_flsbuf_simple+0xd0>
9d007ed8:	00808821 	move	s1,a0
9d007edc:	8ca20000 	lw	v0,0(a1)
9d007ee0:	24420001 	addiu	v0,v0,1
9d007ee4:	2403ffff 	li	v1,-1
9d007ee8:	1043001e 	beq	v0,v1,9d007f64 <_flsbuf_simple+0xa8>
9d007eec:	aca20000 	sw	v0,0(a1)
9d007ef0:	0f402233 	jal	9d0088cc <_fflush_simple>
9d007ef4:	02002021 	move	a0,s0
9d007ef8:	8e040000 	lw	a0,0(s0)
9d007efc:	8e020004 	lw	v0,4(s0)
9d007f00:	2484ffff 	addiu	a0,a0,-1
9d007f04:	24430001 	addiu	v1,v0,1
9d007f08:	ae040000 	sw	a0,0(s0)
9d007f0c:	ae030004 	sw	v1,4(s0)
9d007f10:	a0510000 	sb	s1,0(v0)
9d007f14:	2402000a 	li	v0,10
9d007f18:	52220007 	beql	s1,v0,9d007f38 <_flsbuf_simple+0x7c>
9d007f1c:	96020010 	lhu	v0,16(s0)
9d007f20:	02201021 	move	v0,s1
9d007f24:	8fbf0024 	lw	ra,36(sp)
9d007f28:	8fb10020 	lw	s1,32(sp)
9d007f2c:	8fb0001c 	lw	s0,28(sp)
9d007f30:	03e00008 	jr	ra
9d007f34:	27bd0028 	addiu	sp,sp,40
9d007f38:	30420008 	andi	v0,v0,0x8
9d007f3c:	1040fff9 	beqz	v0,9d007f24 <_flsbuf_simple+0x68>
9d007f40:	02201021 	move	v0,s1
9d007f44:	0f402233 	jal	9d0088cc <_fflush_simple>
9d007f48:	02002021 	move	a0,s0
9d007f4c:	02201021 	move	v0,s1
9d007f50:	8fbf0024 	lw	ra,36(sp)
9d007f54:	8fb10020 	lw	s1,32(sp)
9d007f58:	8fb0001c 	lw	s0,28(sp)
9d007f5c:	03e00008 	jr	ra
9d007f60:	27bd0028 	addiu	sp,sp,40
9d007f64:	8ca20008 	lw	v0,8(a1)
9d007f68:	1440ffe1 	bnez	v0,9d007ef0 <_flsbuf_simple+0x34>
9d007f6c:	00000000 	nop
9d007f70:	94a20010 	lhu	v0,16(a1)
9d007f74:	aca00004 	sw	zero,4(a1)
9d007f78:	aca0000c 	sw	zero,12(a1)
9d007f7c:	34420010 	ori	v0,v0,0x10
9d007f80:	aca00000 	sw	zero,0(a1)
9d007f84:	0b401fbc 	j	9d007ef0 <_flsbuf_simple+0x34>
9d007f88:	a4a20010 	sh	v0,16(a1)
9d007f8c:	27a40010 	addiu	a0,sp,16
9d007f90:	24050001 	li	a1,1
9d007f94:	0f40234a 	jal	9d008d28 <.LFE0>
9d007f98:	a3b10010 	sb	s1,16(sp)
9d007f9c:	ae000000 	sw	zero,0(s0)
9d007fa0:	02201021 	move	v0,s1
9d007fa4:	8fbf0024 	lw	ra,36(sp)
9d007fa8:	8fb10020 	lw	s1,32(sp)
9d007fac:	8fb0001c 	lw	s0,28(sp)
9d007fb0:	03e00008 	jr	ra
9d007fb4:	27bd0028 	addiu	sp,sp,40

Disassembly of section .text._mon_getc:

9d007fb8 <_mon_getc>:
9d007fb8:	27bdffe8 	addiu	sp,sp,-24
9d007fbc:	afbf0014 	sw	ra,20(sp)
9d007fc0:	3c02a000 	lui	v0,0xa000
9d007fc4:	8c420004 	lw	v0,4(v0)
9d007fc8:	1440000a 	bnez	v0,9d007ff4 <_mon_getc+0x3c>
9d007fcc:	24030002 	li	v1,2
9d007fd0:	3c020000 	lui	v0,0x0
9d007fd4:	24420000 	addiu	v0,v0,0
9d007fd8:	10400029 	beqz	v0,9d008080 <_mon_getc+0xc8>
9d007fdc:	3c020000 	lui	v0,0x0
9d007fe0:	0c000000 	jal	90000000 <_bmxdkpba_address+0x8ffe0000>
9d007fe4:	00000000 	nop
9d007fe8:	8fbf0014 	lw	ra,20(sp)
9d007fec:	03e00008 	jr	ra
9d007ff0:	27bd0018 	addiu	sp,sp,24
9d007ff4:	1043001c 	beq	v0,v1,9d008068 <_mon_getc+0xb0>
9d007ff8:	3c02bf80 	lui	v0,0xbf80
9d007ffc:	3c02bf80 	lui	v0,0xbf80
9d008000:	8c426000 	lw	v0,24576(v0)
9d008004:	3c05bf80 	lui	a1,0xbf80
9d008008:	24a56030 	addiu	a1,a1,24624
9d00800c:	3c04bf80 	lui	a0,0xbf80
9d008010:	24846010 	addiu	a0,a0,24592
9d008014:	30428000 	andi	v0,v0,0x8000
9d008018:	14400003 	bnez	v0,9d008028 <_mon_getc+0x70>
9d00801c:	34038000 	li	v1,0x8000
9d008020:	3c02bf80 	lui	v0,0xbf80
9d008024:	ac436008 	sw	v1,24584(v0)
9d008028:	8c820000 	lw	v0,0(a0)
9d00802c:	30420001 	andi	v0,v0,0x1
9d008030:	14400009 	bnez	v0,9d008058 <_mon_getc+0xa0>
9d008034:	240200a0 	li	v0,160
9d008038:	0b402012 	j	9d008048 <_mon_getc+0x90>
9d00803c:	00000000 	nop
9d008040:	10400005 	beqz	v0,9d008058 <_mon_getc+0xa0>
9d008044:	00000000 	nop
9d008048:	8c830000 	lw	v1,0(a0)
9d00804c:	30630001 	andi	v1,v1,0x1
9d008050:	1060fffb 	beqz	v1,9d008040 <_mon_getc+0x88>
9d008054:	2442ffff 	addiu	v0,v0,-1
9d008058:	8ca20000 	lw	v0,0(a1)
9d00805c:	8fbf0014 	lw	ra,20(sp)
9d008060:	03e00008 	jr	ra
9d008064:	27bd0018 	addiu	sp,sp,24
9d008068:	8c426800 	lw	v0,26624(v0)
9d00806c:	3c05bf80 	lui	a1,0xbf80
9d008070:	24a56830 	addiu	a1,a1,26672
9d008074:	3c04bf80 	lui	a0,0xbf80
9d008078:	0b402005 	j	9d008014 <_mon_getc+0x5c>
9d00807c:	24846810 	addiu	a0,a0,26640
9d008080:	24420000 	addiu	v0,v0,0
9d008084:	5040ffde 	beqzl	v0,9d008000 <_mon_getc+0x48>
9d008088:	3c02bf80 	lui	v0,0xbf80
9d00808c:	0c000000 	jal	90000000 <_bmxdkpba_address+0x8ffe0000>
9d008090:	00000000 	nop
9d008094:	0b401ffb 	j	9d007fec <_mon_getc+0x34>
9d008098:	8fbf0014 	lw	ra,20(sp)

Disassembly of section .text.general_exception:

9d00809c <_general_exception_context>:
9d00809c:	27bdffa8 	addiu	sp,sp,-88
9d0080a0:	afa10004 	sw	at,4(sp)
9d0080a4:	afa20008 	sw	v0,8(sp)
9d0080a8:	afa3000c 	sw	v1,12(sp)
9d0080ac:	afa40010 	sw	a0,16(sp)
9d0080b0:	afa50014 	sw	a1,20(sp)
9d0080b4:	afa60018 	sw	a2,24(sp)
9d0080b8:	afa7001c 	sw	a3,28(sp)
9d0080bc:	afa80020 	sw	t0,32(sp)
9d0080c0:	afa90024 	sw	t1,36(sp)
9d0080c4:	afaa0028 	sw	t2,40(sp)
9d0080c8:	afab002c 	sw	t3,44(sp)
9d0080cc:	afac0030 	sw	t4,48(sp)
9d0080d0:	afad0034 	sw	t5,52(sp)
9d0080d4:	afae0038 	sw	t6,56(sp)
9d0080d8:	afaf003c 	sw	t7,60(sp)
9d0080dc:	afb80040 	sw	t8,64(sp)
9d0080e0:	afb90044 	sw	t9,68(sp)
9d0080e4:	afbf0048 	sw	ra,72(sp)
9d0080e8:	00004012 	mflo	t0
9d0080ec:	afa8004c 	sw	t0,76(sp)
9d0080f0:	00004010 	mfhi	t0
9d0080f4:	afa80050 	sw	t0,80(sp)
9d0080f8:	3c1a9d01 	lui	k0,0x9d01
9d0080fc:	275a8dbc 	addiu	k0,k0,-29252
9d008100:	00000000 	nop
9d008104:	40046800 	mfc0	a0,c0_cause
9d008108:	40056000 	mfc0	a1,c0_status
9d00810c:	0340f809 	jalr	k0
9d008110:	00000000 	nop
9d008114:	8fa80050 	lw	t0,80(sp)
9d008118:	01000011 	mthi	t0
9d00811c:	8fa8004c 	lw	t0,76(sp)
9d008120:	01000013 	mtlo	t0
9d008124:	8fa10004 	lw	at,4(sp)
9d008128:	8fa20008 	lw	v0,8(sp)
9d00812c:	8fa3000c 	lw	v1,12(sp)
9d008130:	8fa40010 	lw	a0,16(sp)
9d008134:	8fa50014 	lw	a1,20(sp)
9d008138:	8fa60018 	lw	a2,24(sp)
9d00813c:	8fa7001c 	lw	a3,28(sp)
9d008140:	8fa80020 	lw	t0,32(sp)
9d008144:	8fa90024 	lw	t1,36(sp)
9d008148:	8faa0028 	lw	t2,40(sp)
9d00814c:	8fab002c 	lw	t3,44(sp)
9d008150:	8fac0030 	lw	t4,48(sp)
9d008154:	8fad0034 	lw	t5,52(sp)
9d008158:	8fae0038 	lw	t6,56(sp)
9d00815c:	8faf003c 	lw	t7,60(sp)
9d008160:	8fb80040 	lw	t8,64(sp)
9d008164:	8fb90044 	lw	t9,68(sp)
9d008168:	8fbf0048 	lw	ra,72(sp)
9d00816c:	27bd0058 	addiu	sp,sp,88
9d008170:	000000c0 	ehb
9d008174:	42000018 	eret

Disassembly of section .text.libm:

9d008178 <fpmodf>:
9d008178:	00043dc2 30e700ff 3c088000 00043200     .=.....0...<.2..
9d008188:	00c83025 01044024 240100ff 10e10028     %0..$@.....$(...
9d008198:	00000000 00064825 00075025 00085825     ....%H..%P..%X..
9d0081a8:	240c009e 01876023 19800006 00000000     ...$#`..........
9d0081b8:	29810020 1020001c 00000000 01894806      ..).. ......H..
9d0081c8:	01894804                                .H..

9d0081cc <Dlab3>:
9d0081cc:	00096040 	sll	t4,t1,0x1
9d0081d0:	000c6242 	srl	t4,t4,0x9
9d0081d4:	000a6dc0 	sll	t5,t2,0x17
9d0081d8:	018d6025 	or	t4,t4,t5
9d0081dc:	018b6825 	or	t5,t4,t3
9d0081e0:	acad0000 	sw	t5,0(a1)
9d0081e4:	00ea6023 	subu	t4,a3,t2
9d0081e8:	2d810020 	sltiu	at,t4,32
9d0081ec:	14200002 	bnez	at,9d0081f8 <L2>
9d0081f0:	00000000 	nop
9d0081f4:	34090000 	li	t1,0x0

9d0081f8 <L2>:
9d0081f8:	01894806 	srlv	t1,t1,t4
9d0081fc:	00c93023 	subu	a2,a2,t1
9d008200:	10c00008 	beqz	a2,9d008224 <Dret2>
9d008204:	00000000 	nop
9d008208:	70cc6020 	clz	t4,a2
9d00820c:	00ec3823 	subu	a3,a3,t4
9d008210:	01863004 	sllv	a2,a2,t4

9d008214 <Dret>:
9d008214:	00063040 	sll	a2,a2,0x1
9d008218:	00063242 	srl	a2,a2,0x9
9d00821c:	00076dc0 	sll	t5,a3,0x17
9d008220:	00cd3025 	or	a2,a2,t5

9d008224 <Dret2>:
9d008224:	00c81025 	or	v0,a2,t0

9d008228 <D999>:
9d008228:	03e00008 	jr	ra
9d00822c:	00000000 	nop

9d008230 <Dzer>:
9d008230:	1000fff8 	b	9d008214 <Dret>
9d008234:	aca80000 	sw	t0,0(a1)

9d008238 <Dinfnan>:
9d008238:	3c04ffc0 	lui	a0,0xffc0
9d00823c:	aca40000 	sw	a0,0(a1)
9d008240:	1000fff9 	b	9d008228 <D999>
9d008244:	00041025 	or	v0,zero,a0
9d008248:	00000000 	nop

Disassembly of section .text._mon_putc:

9d00824c <_mon_putc>:
9d00824c:	27bdffe8 	addiu	sp,sp,-24
9d008250:	afbf0014 	sw	ra,20(sp)
9d008254:	3c02a000 	lui	v0,0xa000
9d008258:	8c420004 	lw	v0,4(v0)
9d00825c:	1440000a 	bnez	v0,9d008288 <_mon_putc+0x3c>
9d008260:	7c042420 	seb	a0,a0
9d008264:	3c020000 	lui	v0,0x0
9d008268:	24420000 	addiu	v0,v0,0
9d00826c:	10400025 	beqz	v0,9d008304 <_mon_putc+0xb8>
9d008270:	3c020000 	lui	v0,0x0
9d008274:	0c000000 	jal	90000000 <_bmxdkpba_address+0x8ffe0000>
9d008278:	00000000 	nop
9d00827c:	8fbf0014 	lw	ra,20(sp)
9d008280:	03e00008 	jr	ra
9d008284:	27bd0018 	addiu	sp,sp,24
9d008288:	24030001 	li	v1,1
9d00828c:	10430015 	beq	v0,v1,9d0082e4 <_mon_putc+0x98>
9d008290:	3c05bf80 	lui	a1,0xbf80
9d008294:	3c05bf80 	lui	a1,0xbf80
9d008298:	24a56820 	addiu	a1,a1,26656
9d00829c:	3c02bf80 	lui	v0,0xbf80
9d0082a0:	24426818 	addiu	v0,v0,26648
9d0082a4:	3c06bf80 	lui	a2,0xbf80
9d0082a8:	24c66808 	addiu	a2,a2,26632
9d0082ac:	3c03bf80 	lui	v1,0xbf80
9d0082b0:	24636810 	addiu	v1,v1,26640
9d0082b4:	34078000 	li	a3,0x8000
9d0082b8:	acc70000 	sw	a3,0(a2)
9d0082bc:	24060400 	li	a2,1024
9d0082c0:	ac460000 	sw	a2,0(v0)
9d0082c4:	8c620000 	lw	v0,0(v1)
9d0082c8:	30420100 	andi	v0,v0,0x100
9d0082cc:	1040fffd 	beqz	v0,9d0082c4 <_mon_putc+0x78>
9d0082d0:	00000000 	nop
9d0082d4:	aca40000 	sw	a0,0(a1)
9d0082d8:	8fbf0014 	lw	ra,20(sp)
9d0082dc:	03e00008 	jr	ra
9d0082e0:	27bd0018 	addiu	sp,sp,24
9d0082e4:	24a56020 	addiu	a1,a1,24608
9d0082e8:	3c02bf80 	lui	v0,0xbf80
9d0082ec:	24426018 	addiu	v0,v0,24600
9d0082f0:	3c06bf80 	lui	a2,0xbf80
9d0082f4:	24c66008 	addiu	a2,a2,24584
9d0082f8:	3c03bf80 	lui	v1,0xbf80
9d0082fc:	0b4020ad 	j	9d0082b4 <_mon_putc+0x68>
9d008300:	24636010 	addiu	v1,v1,24592
9d008304:	24420000 	addiu	v0,v0,0
9d008308:	1040ffe3 	beqz	v0,9d008298 <_mon_putc+0x4c>
9d00830c:	3c05bf80 	lui	a1,0xbf80
9d008310:	0c000000 	jal	90000000 <_bmxdkpba_address+0x8ffe0000>
9d008314:	00000000 	nop
9d008318:	0b4020a0 	j	9d008280 <_mon_putc+0x34>
9d00831c:	8fbf0014 	lw	ra,20(sp)

Disassembly of section .text._sbrk:

9d008320 <_sbrk>:
9d008320:	27bdffe0 	addiu	sp,sp,-32
9d008324:	afbf001c 	sw	ra,28(sp)
9d008328:	afb00018 	sw	s0,24(sp)
9d00832c:	3c10a000 	lui	s0,0xa000
9d008330:	8e020714 	lw	v0,1812(s0)
9d008334:	10400010 	beqz	v0,9d008378 <_sbrk+0x58>
9d008338:	00000000 	nop
9d00833c:	1880001b 	blez	a0,9d0083ac <_sbrk+0x8c>
9d008340:	00441821 	addu	v1,v0,a0
9d008344:	0062202b 	sltu	a0,v1,v0
9d008348:	54800011 	bnezl	a0,9d008390 <_sbrk+0x70>
9d00834c:	2403000c 	li	v1,12
9d008350:	3c04a000 	lui	a0,0xa000
9d008354:	8c840718 	lw	a0,1816(a0)
9d008358:	0083202b 	sltu	a0,a0,v1
9d00835c:	5480000c 	bnezl	a0,9d008390 <_sbrk+0x70>
9d008360:	2403000c 	li	v1,12
9d008364:	ae030714 	sw	v1,1812(s0)
9d008368:	8fbf001c 	lw	ra,28(sp)
9d00836c:	8fb00018 	lw	s0,24(sp)
9d008370:	03e00008 	jr	ra
9d008374:	27bd0020 	addiu	sp,sp,32
9d008378:	0f401d0c 	jal	9d007430 <_sbrk_init>
9d00837c:	afa40010 	sw	a0,16(sp)
9d008380:	8e020714 	lw	v0,1812(s0)
9d008384:	1440ffed 	bnez	v0,9d00833c <_sbrk+0x1c>
9d008388:	8fa40010 	lw	a0,16(sp)
9d00838c:	2403000c 	li	v1,12
9d008390:	3c02a000 	lui	v0,0xa000
9d008394:	ac430024 	sw	v1,36(v0)
9d008398:	2402ffff 	li	v0,-1
9d00839c:	8fbf001c 	lw	ra,28(sp)
9d0083a0:	8fb00018 	lw	s0,24(sp)
9d0083a4:	03e00008 	jr	ra
9d0083a8:	27bd0020 	addiu	sp,sp,32
9d0083ac:	0043202b 	sltu	a0,v0,v1
9d0083b0:	14800005 	bnez	a0,9d0083c8 <_sbrk+0xa8>
9d0083b4:	3c04a000 	lui	a0,0xa000
9d0083b8:	8c84071c 	lw	a0,1820(a0)
9d0083bc:	0064202b 	sltu	a0,v1,a0
9d0083c0:	5080ffe9 	beqzl	a0,9d008368 <_sbrk+0x48>
9d0083c4:	ae030714 	sw	v1,1812(s0)
9d0083c8:	24030016 	li	v1,22
9d0083cc:	3c02a000 	lui	v0,0xa000
9d0083d0:	ac430024 	sw	v1,36(v0)
9d0083d4:	2402ffff 	li	v0,-1
9d0083d8:	8fbf001c 	lw	ra,28(sp)
9d0083dc:	8fb00018 	lw	s0,24(sp)
9d0083e0:	03e00008 	jr	ra
9d0083e4:	27bd0020 	addiu	sp,sp,32

Disassembly of section .text.fptodp:

9d0083e8 <__extendsfdf2>:
9d0083e8:	00043dc2 30e700ff 3c018000 00813024     .=.....0...<$0..
9d0083f8:	24e9ffff 2d2100fe 1020000d 00000000     ...$..!-.. .....

9d008408 <Glab1>:
9d008408:	24e70380 	addiu	a3,a3,896
9d00840c:	00044a40 	sll	t1,a0,0x9
9d008410:	00094b02 	srl	t1,t1,0xc
9d008414:	00c93025 	or	a2,a2,t1
9d008418:	00042f40 	sll	a1,a0,0x1d

9d00841c <Gret>:
9d00841c:	00074d00 	sll	t1,a3,0x14
9d008420:	00c93025 	or	a2,a2,t1
9d008424:	00051025 	or	v0,zero,a1
9d008428:	00061825 	or	v1,zero,a2

9d00842c <G999>:
9d00842c:	03e00008 	jr	ra
9d008430:	00000000 	nop
9d008434:	00000000 	nop

9d008438 <Gspec>:
9d008438:	24050000 	li	a1,0
9d00843c:	00842021 	addu	a0,a0,a0
9d008440:	1080fff6 	beqz	a0,9d00841c <Gret>
9d008444:	00000000 	nop
9d008448:	14e00009 	bnez	a3,9d008470 <i42>
9d00844c:	00000000 	nop

9d008450 <b43>:
9d008450:	24e7ffff 	addiu	a3,a3,-1
9d008454:	00842021 	addu	a0,a0,a0
9d008458:	3c010080 	lui	at,0x80
9d00845c:	0081082b 	sltu	at,a0,at
9d008460:	1420fffb 	bnez	at,9d008450 <b43>
9d008464:	00000000 	nop
9d008468:	1000ffe7 	b	9d008408 <Glab1>
9d00846c:	00000000 	nop

9d008470 <i42>:
9d008470:	240707ff 	li	a3,2047
9d008474:	3c01ff00 	lui	at,0xff00
9d008478:	34210001 	ori	at,at,0x1
9d00847c:	0081082b 	sltu	at,a0,at
9d008480:	1420ffe6 	bnez	at,9d00841c <Gret>
9d008484:	00000000 	nop
9d008488:	1000ffe4 	b	9d00841c <Gret>
9d00848c:	3c06fff8 	lui	a2,0xfff8
9d008490:	00000000 	nop

Disassembly of section .text.fputc:

9d008494 <fputc>:
9d008494:	27bdffe0 	addiu	sp,sp,-32
9d008498:	afbf001c 	sw	ra,28(sp)
9d00849c:	afb10018 	sw	s1,24(sp)
9d0084a0:	afb00014 	sw	s0,20(sp)
9d0084a4:	00a08021 	move	s0,a1
9d0084a8:	8ca20018 	lw	v0,24(a1)
9d0084ac:	00808821 	move	s1,a0
9d0084b0:	24050001 	li	a1,1
9d0084b4:	8c420010 	lw	v0,16(v0)
9d0084b8:	0040f809 	jalr	v0
9d0084bc:	02002021 	move	a0,s0
9d0084c0:	1040000e 	beqz	v0,9d0084fc <fputc+0x68>
9d0084c4:	2402ffff 	li	v0,-1
9d0084c8:	8e020000 	lw	v0,0(s0)
9d0084cc:	2442ffff 	addiu	v0,v0,-1
9d0084d0:	04400011 	bltz	v0,9d008518 <fputc+0x84>
9d0084d4:	ae020000 	sw	v0,0(s0)
9d0084d8:	96020010 	lhu	v0,16(s0)
9d0084dc:	30420008 	andi	v0,v0,0x8
9d0084e0:	1440000b 	bnez	v0,9d008510 <fputc+0x7c>
9d0084e4:	2402000a 	li	v0,10
9d0084e8:	8e030004 	lw	v1,4(s0)
9d0084ec:	02201021 	move	v0,s1
9d0084f0:	24640001 	addiu	a0,v1,1
9d0084f4:	ae040004 	sw	a0,4(s0)
9d0084f8:	a0710000 	sb	s1,0(v1)
9d0084fc:	8fbf001c 	lw	ra,28(sp)
9d008500:	8fb10018 	lw	s1,24(sp)
9d008504:	8fb00014 	lw	s0,20(sp)
9d008508:	03e00008 	jr	ra
9d00850c:	27bd0020 	addiu	sp,sp,32
9d008510:	5622fff6 	bnel	s1,v0,9d0084ec <fputc+0x58>
9d008514:	8e030004 	lw	v1,4(s0)
9d008518:	8e020018 	lw	v0,24(s0)
9d00851c:	02202021 	move	a0,s1
9d008520:	8c420004 	lw	v0,4(v0)
9d008524:	0040f809 	jalr	v0
9d008528:	02002821 	move	a1,s0
9d00852c:	8fbf001c 	lw	ra,28(sp)
9d008530:	8fb10018 	lw	s1,24(sp)
9d008534:	8fb00014 	lw	s0,20(sp)
9d008538:	03e00008 	jr	ra
9d00853c:	27bd0020 	addiu	sp,sp,32

Disassembly of section .text:

9d008540 <memset>:
9d008540:	00801021 	move	v0,a0
9d008544:	10c00026 	beqz	a2,9d0085e0 <memset+0xa0>
9d008548:	2cca0010 	sltiu	t2,a2,16
9d00854c:	1540001f 	bnez	t2,9d0085cc <memset+0x8c>
9d008550:	30a500ff 	andi	a1,a1,0xff
9d008554:	00055200 	sll	t2,a1,0x8
9d008558:	00aa2825 	or	a1,a1,t2
9d00855c:	00055400 	sll	t2,a1,0x10
9d008560:	00aa2825 	or	a1,a1,t2
9d008564:	30830003 	andi	v1,a0,0x3
9d008568:	10600005 	beqz	v1,9d008580 <memset+0x40>
9d00856c:	24070004 	li	a3,4
9d008570:	00e33823 	subu	a3,a3,v1
9d008574:	00c73023 	subu	a2,a2,a3
9d008578:	b8850000 	swr	a1,0(a0)
9d00857c:	00872021 	addu	a0,a0,a3
9d008580:	30c3000f 	andi	v1,a2,0xf
9d008584:	00c33823 	subu	a3,a2,v1
9d008588:	10e00008 	beqz	a3,9d0085ac <memset+0x6c>
9d00858c:	00603021 	move	a2,v1
9d008590:	00e43821 	addu	a3,a3,a0
9d008594:	ac850000 	sw	a1,0(a0)
9d008598:	ac850004 	sw	a1,4(a0)
9d00859c:	ac850008 	sw	a1,8(a0)
9d0085a0:	24840010 	addiu	a0,a0,16
9d0085a4:	1487fffb 	bne	a0,a3,9d008594 <memset+0x54>
9d0085a8:	ac85fffc 	sw	a1,-4(a0)
9d0085ac:	30c30003 	andi	v1,a2,0x3
9d0085b0:	00c33823 	subu	a3,a2,v1
9d0085b4:	10e00005 	beqz	a3,9d0085cc <memset+0x8c>
9d0085b8:	00603021 	move	a2,v1
9d0085bc:	00e43821 	addu	a3,a3,a0
9d0085c0:	24840004 	addiu	a0,a0,4
9d0085c4:	1487fffe 	bne	a0,a3,9d0085c0 <memset+0x80>
9d0085c8:	ac85fffc 	sw	a1,-4(a0)
9d0085cc:	10c00004 	beqz	a2,9d0085e0 <memset+0xa0>
9d0085d0:	00c43821 	addu	a3,a2,a0
9d0085d4:	24840001 	addiu	a0,a0,1
9d0085d8:	1487fffe 	bne	a0,a3,9d0085d4 <memset+0x94>
9d0085dc:	a085ffff 	sb	a1,-1(a0)
9d0085e0:	03e00008 	jr	ra
9d0085e4:	00000000 	nop

Disassembly of section .text.fpcmp:

9d0085e8 <__eqsf2>:
9d0085e8:	2408fffe 00043040 00053840 00c74825     ...$@0..@8..%H..
9d0085f8:	1120001b 00000000 3c01ff00 34210001     .. ........<..!4
9d008608:	00c1082b 1020001a 00000000 3c01ff00     +..... ........<
9d008618:	34210001 00e1082b 10200015 00000000     ..!4+..... .....
9d008628:	04810002 00063042 00063023              ....B0..#0..

9d008634 <i48>:
9d008634:	04a10002 	bgez	a1,9d008640 <i49>
9d008638:	00073842 	srl	a3,a3,0x1
9d00863c:	00073823 	negu	a3,a3

9d008640 <i49>:
9d008640:	00c7082a 	slt	at,a2,a3
9d008644:	10200003 	beqz	at,9d008654 <i50>
9d008648:	00000000 	nop
9d00864c:	10000007 	b	9d00866c <J999>
9d008650:	2402ffff 	li	v0,-1

9d008654 <i50>:
9d008654:	00e6082a 	slt	at,a3,a2
9d008658:	10200003 	beqz	at,9d008668 <Jequ>
9d00865c:	00000000 	nop
9d008660:	10000002 	b	9d00866c <J999>
9d008664:	24020001 	li	v0,1

9d008668 <Jequ>:
9d008668:	24020000 	li	v0,0

9d00866c <J999>:
9d00866c:	03e00008 	jr	ra
9d008670:	00000000 	nop
9d008674:	00000000 	nop

9d008678 <Jnan>:
9d008678:	1000fffc 	b	9d00866c <J999>
9d00867c:	00081025 	or	v0,zero,t0
9d008680:	00000000 	nop

Disassembly of section .text.repl:

9d008684 <repl>:
9d008684:	27bdffd8 	addiu	sp,sp,-40
9d008688:	afbf0024 	sw	ra,36(sp)
9d00868c:	afb40020 	sw	s4,32(sp)
9d008690:	afb3001c 	sw	s3,28(sp)
9d008694:	afb20018 	sw	s2,24(sp)
9d008698:	afb10014 	sw	s1,20(sp)
9d00869c:	afb00010 	sw	s0,16(sp)
9d0086a0:	00a08021 	move	s0,a1
9d0086a4:	0080a021 	move	s4,a0
9d0086a8:	00c09821 	move	s3,a2
9d0086ac:	24120020 	li	s2,32
9d0086b0:	2411ffff 	li	s1,-1
9d0086b4:	12000011 	beqz	s0,9d0086fc <repl+0x78>
9d0086b8:	2e020021 	sltiu	v0,s0,33
9d0086bc:	02401821 	move	v1,s2
9d0086c0:	0202180b 	movn	v1,s0,v0
9d0086c4:	02602021 	move	a0,s3
9d0086c8:	00602821 	move	a1,v1
9d0086cc:	02803021 	move	a2,s4
9d0086d0:	0f4022ae 	jal	9d008ab8 <__sputn>
9d0086d4:	02038023 	subu	s0,s0,v1
9d0086d8:	1451fff6 	bne	v0,s1,9d0086b4 <repl+0x30>
9d0086dc:	8fbf0024 	lw	ra,36(sp)
9d0086e0:	8fb40020 	lw	s4,32(sp)
9d0086e4:	8fb3001c 	lw	s3,28(sp)
9d0086e8:	8fb20018 	lw	s2,24(sp)
9d0086ec:	8fb10014 	lw	s1,20(sp)
9d0086f0:	8fb00010 	lw	s0,16(sp)
9d0086f4:	03e00008 	jr	ra
9d0086f8:	27bd0028 	addiu	sp,sp,40
9d0086fc:	00001021 	move	v0,zero
9d008700:	8fbf0024 	lw	ra,36(sp)
9d008704:	8fb40020 	lw	s4,32(sp)
9d008708:	8fb3001c 	lw	s3,28(sp)
9d00870c:	8fb20018 	lw	s2,24(sp)
9d008710:	8fb10014 	lw	s1,20(sp)
9d008714:	8fb00010 	lw	s0,16(sp)
9d008718:	03e00008 	jr	ra
9d00871c:	27bd0028 	addiu	sp,sp,40

Disassembly of section .text.strlen:

9d008720 <strlen>:
9d008720:	30830003 	andi	v1,a0,0x3
9d008724:	1460001e 	bnez	v1,9d0087a0 <strlen+0x80>
9d008728:	00801021 	move	v0,a0
9d00872c:	8c820000 	lw	v0,0(a0)
9d008730:	3c07fefe 	lui	a3,0xfefe
9d008734:	34e7feff 	ori	a3,a3,0xfeff
9d008738:	00471821 	addu	v1,v0,a3
9d00873c:	00021027 	nor	v0,zero,v0
9d008740:	3c068080 	lui	a2,0x8080
9d008744:	34c68080 	ori	a2,a2,0x8080
9d008748:	00621824 	and	v1,v1,v0
9d00874c:	00661824 	and	v1,v1,a2
9d008750:	14600013 	bnez	v1,9d0087a0 <strlen+0x80>
9d008754:	00801021 	move	v0,a0
9d008758:	24420004 	addiu	v0,v0,4
9d00875c:	8c430000 	lw	v1,0(v0)
9d008760:	00672821 	addu	a1,v1,a3
9d008764:	00031827 	nor	v1,zero,v1
9d008768:	00a31824 	and	v1,a1,v1
9d00876c:	00661824 	and	v1,v1,a2
9d008770:	5460000c 	bnezl	v1,9d0087a4 <strlen+0x84>
9d008774:	80430000 	lb	v1,0(v0)
9d008778:	24420004 	addiu	v0,v0,4
9d00877c:	8c430000 	lw	v1,0(v0)
9d008780:	00672821 	addu	a1,v1,a3
9d008784:	00031827 	nor	v1,zero,v1
9d008788:	00a31824 	and	v1,a1,v1
9d00878c:	00661824 	and	v1,v1,a2
9d008790:	5060fff2 	beqzl	v1,9d00875c <strlen+0x3c>
9d008794:	24420004 	addiu	v0,v0,4
9d008798:	0b4021e9 	j	9d0087a4 <strlen+0x84>
9d00879c:	80430000 	lb	v1,0(v0)
9d0087a0:	80430000 	lb	v1,0(v0)
9d0087a4:	5460fffe 	bnezl	v1,9d0087a0 <strlen+0x80>
9d0087a8:	24420001 	addiu	v0,v0,1
9d0087ac:	03e00008 	jr	ra
9d0087b0:	00441023 	subu	v0,v0,a0

Disassembly of section .text.isinf:

9d0087b4 <isinf>:
9d0087b4:	27bdffd8 	addiu	sp,sp,-40
9d0087b8:	afbf0024 	sw	ra,36(sp)
9d0087bc:	afb30020 	sw	s3,32(sp)
9d0087c0:	afb2001c 	sw	s2,28(sp)
9d0087c4:	afb10018 	sw	s1,24(sp)
9d0087c8:	afb00014 	sw	s0,20(sp)
9d0087cc:	7c84f000 	ext	a0,a0,0x0,0x1f
9d0087d0:	0f4020fa 	jal	9d0083e8 <.LFE3>
9d0087d4:	3c129d01 	lui	s2,0x9d01
9d0087d8:	00408021 	move	s0,v0
9d0087dc:	00608821 	move	s1,v1
9d0087e0:	8e4690d0 	lw	a2,-28464(s2)
9d0087e4:	8e4790d4 	lw	a3,-28460(s2)
9d0087e8:	00402021 	move	a0,v0
9d0087ec:	00602821 	move	a1,v1
9d0087f0:	0f4022c8 	jal	9d008b20 <__unorddf2>
9d0087f4:	24130001 	li	s3,1
9d0087f8:	14400009 	bnez	v0,9d008820 <isinf+0x6c>
9d0087fc:	3a620001 	xori	v0,s3,0x1
9d008800:	8e4690d0 	lw	a2,-28464(s2)
9d008804:	8e4790d4 	lw	a3,-28460(s2)
9d008808:	02002021 	move	a0,s0
9d00880c:	0f401e12 	jal	9d007848 <__eqdf2>
9d008810:	02202821 	move	a1,s1
9d008814:	28420001 	slti	v0,v0,1
9d008818:	00409821 	move	s3,v0
9d00881c:	3a620001 	xori	v0,s3,0x1
9d008820:	30420001 	andi	v0,v0,0x1
9d008824:	8fbf0024 	lw	ra,36(sp)
9d008828:	8fb30020 	lw	s3,32(sp)
9d00882c:	8fb2001c 	lw	s2,28(sp)
9d008830:	8fb10018 	lw	s1,24(sp)
9d008834:	8fb00014 	lw	s0,20(sp)
9d008838:	03e00008 	jr	ra
9d00883c:	27bd0028 	addiu	sp,sp,40

Disassembly of section .text.isinff:

9d008840 <isinff>:
9d008840:	27bdffd8 	addiu	sp,sp,-40
9d008844:	afbf0024 	sw	ra,36(sp)
9d008848:	afb30020 	sw	s3,32(sp)
9d00884c:	afb2001c 	sw	s2,28(sp)
9d008850:	afb10018 	sw	s1,24(sp)
9d008854:	afb00014 	sw	s0,20(sp)
9d008858:	7c84f000 	ext	a0,a0,0x0,0x1f
9d00885c:	0f4020fa 	jal	9d0083e8 <.LFE3>
9d008860:	3c129d01 	lui	s2,0x9d01
9d008864:	00408021 	move	s0,v0
9d008868:	00608821 	move	s1,v1
9d00886c:	8e4690d0 	lw	a2,-28464(s2)
9d008870:	8e4790d4 	lw	a3,-28460(s2)
9d008874:	00402021 	move	a0,v0
9d008878:	00602821 	move	a1,v1
9d00887c:	0f4022c8 	jal	9d008b20 <__unorddf2>
9d008880:	24130001 	li	s3,1
9d008884:	14400009 	bnez	v0,9d0088ac <isinff+0x6c>
9d008888:	3a620001 	xori	v0,s3,0x1
9d00888c:	8e4690d0 	lw	a2,-28464(s2)
9d008890:	8e4790d4 	lw	a3,-28460(s2)
9d008894:	02002021 	move	a0,s0
9d008898:	0f401e12 	jal	9d007848 <__eqdf2>
9d00889c:	02202821 	move	a1,s1
9d0088a0:	28420001 	slti	v0,v0,1
9d0088a4:	00409821 	move	s3,v0
9d0088a8:	3a620001 	xori	v0,s3,0x1
9d0088ac:	30420001 	andi	v0,v0,0x1
9d0088b0:	8fbf0024 	lw	ra,36(sp)
9d0088b4:	8fb30020 	lw	s3,32(sp)
9d0088b8:	8fb2001c 	lw	s2,28(sp)
9d0088bc:	8fb10018 	lw	s1,24(sp)
9d0088c0:	8fb00014 	lw	s0,20(sp)
9d0088c4:	03e00008 	jr	ra
9d0088c8:	27bd0028 	addiu	sp,sp,40

Disassembly of section .text._fflush_simple:

9d0088cc <_fflush_simple>:
9d0088cc:	27bdffe8 	addiu	sp,sp,-24
9d0088d0:	afbf0014 	sw	ra,20(sp)
9d0088d4:	afb00010 	sw	s0,16(sp)
9d0088d8:	94820010 	lhu	v0,16(a0)
9d0088dc:	30420002 	andi	v0,v0,0x2
9d0088e0:	10400013 	beqz	v0,9d008930 <_fflush_simple+0x64>
9d0088e4:	00808021 	move	s0,a0
9d0088e8:	8c850000 	lw	a1,0(a0)
9d0088ec:	04a0000c 	bltz	a1,9d008920 <_fflush_simple+0x54>
9d0088f0:	00001021 	move	v0,zero
9d0088f4:	8c82000c 	lw	v0,12(a0)
9d0088f8:	50a20006 	beql	a1,v0,9d008914 <_fflush_simple+0x48>
9d0088fc:	8e030008 	lw	v1,8(s0)
9d008900:	8c840008 	lw	a0,8(a0)
9d008904:	0f40234a 	jal	9d008d28 <.LFE0>
9d008908:	00452823 	subu	a1,v0,a1
9d00890c:	8e02000c 	lw	v0,12(s0)
9d008910:	8e030008 	lw	v1,8(s0)
9d008914:	ae020000 	sw	v0,0(s0)
9d008918:	ae030004 	sw	v1,4(s0)
9d00891c:	00001021 	move	v0,zero
9d008920:	8fbf0014 	lw	ra,20(sp)
9d008924:	8fb00010 	lw	s0,16(sp)
9d008928:	03e00008 	jr	ra
9d00892c:	27bd0018 	addiu	sp,sp,24
9d008930:	2402ffff 	li	v0,-1
9d008934:	ac820004 	sw	v0,4(a0)
9d008938:	00001021 	move	v0,zero
9d00893c:	8fbf0014 	lw	ra,20(sp)
9d008940:	8fb00010 	lw	s0,16(sp)
9d008944:	03e00008 	jr	ra
9d008948:	27bd0018 	addiu	sp,sp,24

Disassembly of section .text._fwrite_simple:

9d00894c <_fwrite_simple>:
9d00894c:	27bdffd8 	addiu	sp,sp,-40
9d008950:	afbf0024 	sw	ra,36(sp)
9d008954:	afb10020 	sw	s1,32(sp)
9d008958:	afb0001c 	sw	s0,28(sp)
9d00895c:	70c58002 	mul	s0,a2,a1
9d008960:	12000007 	beqz	s0,9d008980 <_fwrite_simple+0x34>
9d008964:	00001021 	move	v0,zero
9d008968:	94e30010 	lhu	v1,16(a3)
9d00896c:	30630001 	andi	v1,v1,0x1
9d008970:	10600008 	beqz	v1,9d008994 <_fwrite_simple+0x48>
9d008974:	3c03a000 	lui	v1,0xa000
9d008978:	24040009 	li	a0,9
9d00897c:	ac640024 	sw	a0,36(v1)
9d008980:	8fbf0024 	lw	ra,36(sp)
9d008984:	8fb10020 	lw	s1,32(sp)
9d008988:	8fb0001c 	lw	s0,28(sp)
9d00898c:	03e00008 	jr	ra
9d008990:	27bd0028 	addiu	sp,sp,40
9d008994:	00808821 	move	s1,a0
9d008998:	00e02021 	move	a0,a3
9d00899c:	0f402233 	jal	9d0088cc <_fflush_simple>
9d0089a0:	afa60010 	sw	a2,16(sp)
9d0089a4:	02202021 	move	a0,s1
9d0089a8:	0f40234a 	jal	9d008d28 <.LFE0>
9d0089ac:	02002821 	move	a1,s0
9d0089b0:	8fa60010 	lw	a2,16(sp)
9d0089b4:	00c01021 	move	v0,a2
9d0089b8:	8fbf0024 	lw	ra,36(sp)
9d0089bc:	8fb10020 	lw	s1,32(sp)
9d0089c0:	8fb0001c 	lw	s0,28(sp)
9d0089c4:	03e00008 	jr	ra
9d0089c8:	27bd0028 	addiu	sp,sp,40

Disassembly of section .text.fptoli:

9d0089cc <__fixsfsi>:
9d0089cc:	00042a00 3c018000 00a12825 00043dc2     .*.....<%(...=..
9d0089dc:	30e700ff 2406009e 00c73023 18c0000d     ...0...$#0......
9d0089ec:	00000000 28c10020 14200003 00000000     .... ..(.. .....
9d0089fc:	10000005 24020000                       .......$

9d008a04 <i42>:
9d008a04:	04810002 	bgez	a0,9d008a10 <i43>
9d008a08:	00c52806 	srlv	a1,a1,a2
9d008a0c:	00052823 	negu	a1,a1

9d008a10 <i43>:
9d008a10:	00051025 	or	v0,zero,a1

9d008a14 <G999>:
9d008a14:	03e00008 	jr	ra
9d008a18:	00000000 	nop
9d008a1c:	00000000 	nop

9d008a20 <Gspec>:
9d008a20:	3c017f80 	lui	at,0x7f80
9d008a24:	34210001 	ori	at,at,0x1
9d008a28:	0081082b 	sltu	at,a0,at
9d008a2c:	14200003 	bnez	at,9d008a3c <i44>
9d008a30:	00000000 	nop
9d008a34:	1000fff7 	b	9d008a14 <G999>
9d008a38:	3c028000 	lui	v0,0x8000

9d008a3c <i44>:
9d008a3c:	3c027fff 	lui	v0,0x7fff
9d008a40:	1000fff4 	b	9d008a14 <G999>
9d008a44:	3442ffff 	ori	v0,v0,0xffff
9d008a48:	00000000 	nop

Disassembly of section .text._sprintf_fF:

9d008a4c <_sprintf_fF>:
9d008a4c:	27bdffc8 	addiu	sp,sp,-56
9d008a50:	afbf0034 	sw	ra,52(sp)
9d008a54:	27a20040 	addiu	v0,sp,64
9d008a58:	00801821 	move	v1,a0
9d008a5c:	afa60040 	sw	a2,64(sp)
9d008a60:	27a40010 	addiu	a0,sp,16
9d008a64:	00403021 	move	a2,v0
9d008a68:	afa70044 	sw	a3,68(sp)
9d008a6c:	2407ffff 	li	a3,-1
9d008a70:	a7a70022 	sh	a3,34(sp)
9d008a74:	24070082 	li	a3,130
9d008a78:	a7a70020 	sh	a3,32(sp)
9d008a7c:	3c077fff 	lui	a3,0x7fff
9d008a80:	34e7fffe 	ori	a3,a3,0xfffe
9d008a84:	afa70010 	sw	a3,16(sp)
9d008a88:	afa30018 	sw	v1,24(sp)
9d008a8c:	afa30014 	sw	v1,20(sp)
9d008a90:	3c039d01 	lui	v1,0x9d01
9d008a94:	246390a0 	addiu	v1,v1,-28512
9d008a98:	afa30028 	sw	v1,40(sp)
9d008a9c:	0f400e9e 	jal	9d003a78 <_do_print_fF>
9d008aa0:	afa2002c 	sw	v0,44(sp)
9d008aa4:	8fa30014 	lw	v1,20(sp)
9d008aa8:	a0600000 	sb	zero,0(v1)
9d008aac:	8fbf0034 	lw	ra,52(sp)
9d008ab0:	03e00008 	jr	ra
9d008ab4:	27bd0038 	addiu	sp,sp,56

Disassembly of section .text.__sputn:

9d008ab8 <__sputn>:
9d008ab8:	27bdffd8 	addiu	sp,sp,-40
9d008abc:	afbf0024 	sw	ra,36(sp)
9d008ac0:	afb30020 	sw	s3,32(sp)
9d008ac4:	afb2001c 	sw	s2,28(sp)
9d008ac8:	afb10018 	sw	s1,24(sp)
9d008acc:	afb00014 	sw	s0,20(sp)
9d008ad0:	00808021 	move	s0,a0
9d008ad4:	00c09021 	move	s2,a2
9d008ad8:	00858821 	addu	s1,a0,a1
9d008adc:	0b4022be 	j	9d008af8 <__sputn+0x40>
9d008ae0:	2413ffff 	li	s3,-1
9d008ae4:	26100001 	addiu	s0,s0,1
9d008ae8:	0f402125 	jal	9d008494 <fputc>
9d008aec:	8204ffff 	lb	a0,-1(s0)
9d008af0:	10530005 	beq	v0,s3,9d008b08 <__sputn+0x50>
9d008af4:	8fbf0024 	lw	ra,36(sp)
9d008af8:	1611fffa 	bne	s0,s1,9d008ae4 <__sputn+0x2c>
9d008afc:	02402821 	move	a1,s2
9d008b00:	00001021 	move	v0,zero
9d008b04:	8fbf0024 	lw	ra,36(sp)
9d008b08:	8fb30020 	lw	s3,32(sp)
9d008b0c:	8fb2001c 	lw	s2,28(sp)
9d008b10:	8fb10018 	lw	s1,24(sp)
9d008b14:	8fb00014 	lw	s0,20(sp)
9d008b18:	03e00008 	jr	ra
9d008b1c:	27bd0028 	addiu	sp,sp,40

Disassembly of section .text.__unorddf2:

9d008b20 <__unorddf2>:
9d008b20:	3c027ff0 	lui	v0,0x7ff0
9d008b24:	7ca5f000 	ext	a1,a1,0x0,0x1f
9d008b28:	24430001 	addiu	v1,v0,1
9d008b2c:	00a3182b 	sltu	v1,a1,v1
9d008b30:	50600012 	beqzl	v1,9d008b7c <__unorddf2+0x5c>
9d008b34:	24020001 	li	v0,1
9d008b38:	10a2000a 	beq	a1,v0,9d008b64 <__unorddf2+0x44>
9d008b3c:	3c037ff0 	lui	v1,0x7ff0
9d008b40:	7ce7f000 	ext	a3,a3,0x0,0x1f
9d008b44:	24640001 	addiu	a0,v1,1
9d008b48:	00e4202b 	sltu	a0,a3,a0
9d008b4c:	1080000b 	beqz	a0,9d008b7c <__unorddf2+0x5c>
9d008b50:	24020001 	li	v0,1
9d008b54:	10e30007 	beq	a3,v1,9d008b74 <__unorddf2+0x54>
9d008b58:	00000000 	nop
9d008b5c:	03e00008 	jr	ra
9d008b60:	00001021 	move	v0,zero
9d008b64:	1080fff6 	beqz	a0,9d008b40 <__unorddf2+0x20>
9d008b68:	00000000 	nop
9d008b6c:	03e00008 	jr	ra
9d008b70:	24020001 	li	v0,1
9d008b74:	10c0fff9 	beqz	a2,9d008b5c <__unorddf2+0x3c>
9d008b78:	00000000 	nop
9d008b7c:	03e00008 	jr	ra
9d008b80:	00000000 	nop

Disassembly of section .text.sitofp:

9d008b84 <__floatsisf>:
9d008b84:	3c018000 10800012 00813024 04810002     ...<....$0......
9d008b94:	00000000 00042023                       ....# ..

9d008b9c <i40>:
9d008b9c:	2405009e 	li	a1,158
9d008ba0:	70873820 	clz	a3,a0
9d008ba4:	00a72823 	subu	a1,a1,a3
9d008ba8:	00e42004 	sllv	a0,a0,a3
9d008bac:	24840080 	addiu	a0,a0,128
9d008bb0:	2c880080 	sltiu	t0,a0,128
9d008bb4:	00a82821 	addu	a1,a1,t0
9d008bb8:	00044203 	sra	t0,a0,0x8
9d008bbc:	31080001 	andi	t0,t0,0x1
9d008bc0:	00882023 	subu	a0,a0,t0
9d008bc4:	00042040 	sll	a0,a0,0x1
9d008bc8:	00042242 	srl	a0,a0,0x9
9d008bcc:	000545c0 	sll	t0,a1,0x17
9d008bd0:	00882025 	or	a0,a0,t0

9d008bd4 <i39>:
9d008bd4:	00861025 	or	v0,a0,a2

9d008bd8 <E999>:
9d008bd8:	03e00008 	jr	ra
9d008bdc:	00000000 	nop
9d008be0:	00000000 	nop

Disassembly of section .text.main_entry:

9d008be4 <_main_entry>:
9d008be4:	3c040000 	lui	a0,0x0
9d008be8:	27bdffe8 	addiu	sp,sp,-24
9d008bec:	24840000 	addiu	a0,a0,0
9d008bf0:	10800003 	beqz	a0,9d008c00 <_main_entry+0x1c>
9d008bf4:	afbf0014 	sw	ra,20(sp)
9d008bf8:	0080f809 	jalr	a0
9d008bfc:	00000000 	nop
9d008c00:	30840000 	andi	a0,a0,0x0
9d008c04:	30a50000 	andi	a1,a1,0x0
9d008c08:	3c089d00 	lui	t0,0x9d00
9d008c0c:	25082d50 	addiu	t0,t0,11600
9d008c10:	0100f809 	jalr	t0
9d008c14:	00000000 	nop

9d008c18 <__crt0_exit>:
9d008c18:	3c020000 24420000 10400003 00000000     ...<..B$..@.....
9d008c28:	0040f809 00000000 1000fff9 00000000     ..@.............

Disassembly of section .rodata:

9d008c38 <zeroData-0x8>:
9d008c38:	6c756e28 	0x6c756e28
9d008c3c:	0000296c 	0x296c

9d008c40 <zeroData>:
9d008c40:	30303030 30303030 30303030 30303030     0000000000000000
9d008c50:	30303030 30303030 30303030 30303030     0000000000000000

9d008c60 <spaceData>:
9d008c60:	20202020 20202020 20202020 20202020                     
9d008c70:	20202020 20202020 20202020 20202020                     
9d008c80:	41200000 3c23d70a 40800000              .. A..#<...@

Disassembly of section .text.sbrk:

9d008c8c <sbrk>:
9d008c8c:	27bdffe0 	addiu	sp,sp,-32
9d008c90:	afbf001c 	sw	ra,28(sp)
9d008c94:	afb10018 	sw	s1,24(sp)
9d008c98:	afb00014 	sw	s0,20(sp)
9d008c9c:	0f4020c8 	jal	9d008320 <.LFE0>
9d008ca0:	00808821 	move	s1,a0
9d008ca4:	1a200007 	blez	s1,9d008cc4 <sbrk+0x38>
9d008ca8:	00408021 	move	s0,v0
9d008cac:	2402ffff 	li	v0,-1
9d008cb0:	12020004 	beq	s0,v0,9d008cc4 <sbrk+0x38>
9d008cb4:	02002021 	move	a0,s0
9d008cb8:	00002821 	move	a1,zero
9d008cbc:	0f402150 	jal	9d008540 <memset>
9d008cc0:	02203021 	move	a2,s1
9d008cc4:	02001021 	move	v0,s0
9d008cc8:	8fbf001c 	lw	ra,28(sp)
9d008ccc:	8fb10018 	lw	s1,24(sp)
9d008cd0:	8fb00014 	lw	s0,20(sp)
9d008cd4:	03e00008 	jr	ra
9d008cd8:	27bd0020 	addiu	sp,sp,32

Disassembly of section .text:

9d008cdc <__floatunsisf>:
9d008cdc:	27bdffe8 	addiu	sp,sp,-24
9d008ce0:	afbf0014 	sw	ra,20(sp)
9d008ce4:	04800006 	bltz	a0,9d008d00 <__floatunsisf+0x24>
9d008ce8:	00801021 	move	v0,a0
9d008cec:	0f4022e1 	jal	9d008b84 <.LFE23>
9d008cf0:	00000000 	nop
9d008cf4:	8fbf0014 	lw	ra,20(sp)
9d008cf8:	03e00008 	jr	ra
9d008cfc:	27bd0018 	addiu	sp,sp,24
9d008d00:	00042042 	srl	a0,a0,0x1
9d008d04:	30420001 	andi	v0,v0,0x1
9d008d08:	0f4022e1 	jal	9d008b84 <.LFE23>
9d008d0c:	00822025 	or	a0,a0,v0
9d008d10:	00402021 	move	a0,v0
9d008d14:	0f401af4 	jal	9d006bd0 <__addsf3>
9d008d18:	00402821 	move	a1,v0
9d008d1c:	8fbf0014 	lw	ra,20(sp)
9d008d20:	03e00008 	jr	ra
9d008d24:	27bd0018 	addiu	sp,sp,24

Disassembly of section .text._mon_write:

9d008d28 <_mon_write>:
9d008d28:	27bdffe0 	addiu	sp,sp,-32
9d008d2c:	afbf001c 	sw	ra,28(sp)
9d008d30:	afb10018 	sw	s1,24(sp)
9d008d34:	afb00014 	sw	s0,20(sp)
9d008d38:	10800009 	beqz	a0,9d008d60 <_mon_write+0x38>
9d008d3c:	00808021 	move	s0,a0
9d008d40:	10a00007 	beqz	a1,9d008d60 <_mon_write+0x38>
9d008d44:	00a08821 	move	s1,a1
9d008d48:	82040000 	lb	a0,0(s0)
9d008d4c:	2631ffff 	addiu	s1,s1,-1
9d008d50:	0f402093 	jal	9d00824c <_mon_putc>
9d008d54:	26100001 	addiu	s0,s0,1
9d008d58:	5620fffc 	bnezl	s1,9d008d4c <_mon_write+0x24>
9d008d5c:	82040000 	lb	a0,0(s0)
9d008d60:	8fbf001c 	lw	ra,28(sp)
9d008d64:	8fb10018 	lw	s1,24(sp)
9d008d68:	8fb00014 	lw	s0,20(sp)
9d008d6c:	03e00008 	jr	ra
9d008d70:	27bd0020 	addiu	sp,sp,32

Disassembly of section .text._bootstrap_exception_handler:

9d008d74 <_bootstrap_exception_handler>:
9d008d74:	3c020000 	lui	v0,0x0
9d008d78:	24420000 	addiu	v0,v0,0
9d008d7c:	10400005 	beqz	v0,9d008d94 <_bootstrap_exception_handler+0x20>
9d008d80:	3c020000 	lui	v0,0x0
9d008d84:	24420000 	addiu	v0,v0,0
9d008d88:	10400003 	beqz	v0,9d008d98 <_bootstrap_exception_handler+0x24>
9d008d8c:	3c029d01 	lui	v0,0x9d01
9d008d90:	7000003f 	sdbbp
9d008d94:	3c029d01 	lui	v0,0x9d01
9d008d98:	24428e4c 	addiu	v0,v0,-29108
9d008d9c:	10400005 	beqz	v0,9d008db4 <_bootstrap_exception_handler+0x40>
9d008da0:	00000000 	nop
9d008da4:	27bdffe8 	addiu	sp,sp,-24
9d008da8:	afbf0014 	sw	ra,20(sp)
9d008dac:	0040f809 	jalr	v0
9d008db0:	00000000 	nop
9d008db4:	0b40236d 	j	9d008db4 <_bootstrap_exception_handler+0x40>
9d008db8:	00000000 	nop

Disassembly of section .text._general_exception_handler:

9d008dbc <_general_exception_handler>:
9d008dbc:	3c020000 	lui	v0,0x0
9d008dc0:	24420000 	addiu	v0,v0,0
9d008dc4:	10400005 	beqz	v0,9d008ddc <_general_exception_handler+0x20>
9d008dc8:	3c020000 	lui	v0,0x0
9d008dcc:	24420000 	addiu	v0,v0,0
9d008dd0:	10400003 	beqz	v0,9d008de0 <_general_exception_handler+0x24>
9d008dd4:	3c029d01 	lui	v0,0x9d01
9d008dd8:	7000003f 	sdbbp
9d008ddc:	3c029d01 	lui	v0,0x9d01
9d008de0:	24428e4c 	addiu	v0,v0,-29108
9d008de4:	10400005 	beqz	v0,9d008dfc <_general_exception_handler+0x40>
9d008de8:	00000000 	nop
9d008dec:	27bdffe8 	addiu	sp,sp,-24
9d008df0:	afbf0014 	sw	ra,20(sp)
9d008df4:	0040f809 	jalr	v0
9d008df8:	00000000 	nop
9d008dfc:	0b40237f 	j	9d008dfc <_general_exception_handler+0x40>
9d008e00:	00000000 	nop

Disassembly of section .vector_default:

9d008e04 <_DefaultInterrupt>:
9d008e04:	3c020000 	lui	v0,0x0
9d008e08:	24420000 	addiu	v0,v0,0
9d008e0c:	10400007 	beqz	v0,9d008e2c <_DefaultInterrupt+0x28>
9d008e10:	3c020000 	lui	v0,0x0
9d008e14:	24420000 	addiu	v0,v0,0
9d008e18:	50400005 	beqzl	v0,9d008e30 <_DefaultInterrupt+0x2c>
9d008e1c:	3c029d01 	lui	v0,0x9d01
9d008e20:	7000003f 	sdbbp
9d008e24:	03e00008 	jr	ra
9d008e28:	00000000 	nop
9d008e2c:	3c029d01 	lui	v0,0x9d01
9d008e30:	24428e4c 	addiu	v0,v0,-29108
9d008e34:	10400003 	beqz	v0,9d008e44 <_DefaultInterrupt+0x40>
9d008e38:	00000000 	nop
9d008e3c:	0040f809 	jalr	v0
9d008e40:	00000000 	nop
9d008e44:	03e00008 	jr	ra
9d008e48:	00000000 	nop

Disassembly of section .text:

9d008e4c <__pic32_software_reset>:
9d008e4c:	41606000 	di
9d008e50:	000000c0 	ehb
9d008e54:	3c03aa99 	lui	v1,0xaa99
9d008e58:	3c02bf81 	lui	v0,0xbf81
9d008e5c:	24636655 	addiu	v1,v1,26197
9d008e60:	ac40f230 	sw	zero,-3536(v0)
9d008e64:	ac43f230 	sw	v1,-3536(v0)
9d008e68:	3c035566 	lui	v1,0x5566
9d008e6c:	346399aa 	ori	v1,v1,0x99aa
9d008e70:	ac43f230 	sw	v1,-3536(v0)
9d008e74:	3c02bf81 	lui	v0,0xbf81
9d008e78:	24030001 	li	v1,1
9d008e7c:	ac43f618 	sw	v1,-2536(v0)
9d008e80:	3c02bf81 	lui	v0,0xbf81
9d008e84:	8c42f610 	lw	v0,-2544(v0)
9d008e88:	0b402395 	j	9d008e54 <__pic32_software_reset+0x8>
9d008e8c:	00000000 	nop

Disassembly of section .text.isnan:

9d008e90 <isnan>:
9d008e90:	27bdffe8 	addiu	sp,sp,-24
9d008e94:	afbf0014 	sw	ra,20(sp)
9d008e98:	0f4020fa 	jal	9d0083e8 <.LFE3>
9d008e9c:	00000000 	nop
9d008ea0:	00402021 	move	a0,v0
9d008ea4:	00602821 	move	a1,v1
9d008ea8:	00403021 	move	a2,v0
9d008eac:	0f4022c8 	jal	9d008b20 <__unorddf2>
9d008eb0:	00603821 	move	a3,v1
9d008eb4:	0002102b 	sltu	v0,zero,v0
9d008eb8:	8fbf0014 	lw	ra,20(sp)
9d008ebc:	03e00008 	jr	ra
9d008ec0:	27bd0018 	addiu	sp,sp,24

Disassembly of section .text.isnanf:

9d008ec4 <isnanf>:
9d008ec4:	27bdffe8 	addiu	sp,sp,-24
9d008ec8:	afbf0014 	sw	ra,20(sp)
9d008ecc:	0f4020fa 	jal	9d0083e8 <.LFE3>
9d008ed0:	00000000 	nop
9d008ed4:	00402021 	move	a0,v0
9d008ed8:	00602821 	move	a1,v1
9d008edc:	00403021 	move	a2,v0
9d008ee0:	0f4022c8 	jal	9d008b20 <__unorddf2>
9d008ee4:	00603821 	move	a3,v1
9d008ee8:	0002102b 	sltu	v0,zero,v0
9d008eec:	8fbf0014 	lw	ra,20(sp)
9d008ef0:	03e00008 	jr	ra
9d008ef4:	27bd0018 	addiu	sp,sp,24

Disassembly of section .text._filbuf_simple:

9d008ef8 <_filbuf_simple>:
9d008ef8:	8c820004 	lw	v0,4(a0)
9d008efc:	2403ffff 	li	v1,-1
9d008f00:	10430003 	beq	v0,v1,9d008f10 <_filbuf_simple+0x18>
9d008f04:	ac800000 	sw	zero,0(a0)
9d008f08:	03e00008 	jr	ra
9d008f0c:	ac830004 	sw	v1,4(a0)
9d008f10:	27bdffe8 	addiu	sp,sp,-24
9d008f14:	afbf0014 	sw	ra,20(sp)
9d008f18:	0f401fee 	jal	9d007fb8 <_mon_getc>
9d008f1c:	24040001 	li	a0,1
9d008f20:	8fbf0014 	lw	ra,20(sp)
9d008f24:	03e00008 	jr	ra
9d008f28:	27bd0018 	addiu	sp,sp,24

Disassembly of section .text._fsync_simple:

9d008f2c <_fsync_simple>:
9d008f2c:	94830010 	lhu	v1,16(a0)
9d008f30:	00a32824 	and	a1,a1,v1
9d008f34:	10a00007 	beqz	a1,9d008f54 <_fsync_simple+0x28>
9d008f38:	24020001 	li	v0,1
9d008f3c:	34630040 	ori	v1,v1,0x40
9d008f40:	a4830010 	sh	v1,16(a0)
9d008f44:	24030009 	li	v1,9
9d008f48:	3c02a000 	lui	v0,0xa000
9d008f4c:	ac430024 	sw	v1,36(v0)
9d008f50:	00001021 	move	v0,zero
9d008f54:	03e00008 	jr	ra
9d008f58:	00000000 	nop

Disassembly of section .text._stub_sbd_memlayout:

9d008f5c <_stub_sbd_memlayout>:
9d008f5c:	3c03a000 	lui	v1,0xa000
9d008f60:	246206fc 	addiu	v0,v1,1788
9d008f64:	24040001 	li	a0,1
9d008f68:	ac440008 	sw	a0,8(v0)
9d008f6c:	3c04a000 	lui	a0,0xa000
9d008f70:	24840748 	addiu	a0,a0,1864
9d008f74:	ac6406fc 	sw	a0,1788(v1)
9d008f78:	3c030000 	lui	v1,0x0
9d008f7c:	24630000 	addiu	v1,v1,0
9d008f80:	03e00008 	jr	ra
9d008f84:	ac430004 	sw	v1,4(v0)

Disassembly of section .text.isnanl:

9d008f88 <isnanl>:
9d008f88:	3c037ff0 	lui	v1,0x7ff0
9d008f8c:	00653024 	and	a2,v1,a1
9d008f90:	10c30003 	beq	a2,v1,9d008fa0 <isnanl+0x18>
9d008f94:	00001021 	move	v0,zero
9d008f98:	03e00008 	jr	ra
9d008f9c:	00000000 	nop
9d008fa0:	7ca29800 	ext	v0,a1,0x0,0x14
9d008fa4:	00441025 	or	v0,v0,a0
9d008fa8:	03e00008 	jr	ra
9d008fac:	0002102b 	sltu	v0,zero,v0

Disassembly of section .text.isinfl:

9d008fb0 <isinfl>:
9d008fb0:	3c037ff0 	lui	v1,0x7ff0
9d008fb4:	00653024 	and	a2,v1,a1
9d008fb8:	10c30003 	beq	a2,v1,9d008fc8 <isinfl+0x18>
9d008fbc:	00001021 	move	v0,zero
9d008fc0:	03e00008 	jr	ra
9d008fc4:	00000000 	nop
9d008fc8:	7ca29800 	ext	v0,a1,0x0,0x14
9d008fcc:	00441025 	or	v0,v0,a0
9d008fd0:	03e00008 	jr	ra
9d008fd4:	2c420001 	sltiu	v0,v0,1

Disassembly of section .text.putchar:

9d008fd8 <putchar>:
9d008fd8:	27bdffe8 	addiu	sp,sp,-24
9d008fdc:	afbf0014 	sw	ra,20(sp)
9d008fe0:	3c02a000 	lui	v0,0xa000
9d008fe4:	8c420000 	lw	v0,0(v0)
9d008fe8:	0f402125 	jal	9d008494 <fputc>
9d008fec:	8c450004 	lw	a1,4(v0)
9d008ff0:	8fbf0014 	lw	ra,20(sp)
9d008ff4:	03e00008 	jr	ra
9d008ff8:	27bd0018 	addiu	sp,sp,24

Disassembly of section .text._vfprintf_fF:

9d008ffc <_vfprintf_fF>:
9d008ffc:	27bdffe8 	addiu	sp,sp,-24
9d009000:	afbf0014 	sw	ra,20(sp)
9d009004:	0f400e9e 	jal	9d003a78 <_do_print_fF>
9d009008:	00000000 	nop
9d00900c:	8fbf0014 	lw	ra,20(sp)
9d009010:	03e00008 	jr	ra
9d009014:	27bd0018 	addiu	sp,sp,24

Disassembly of section .text.putc:

9d009018 <putc>:
9d009018:	27bdffe8 	addiu	sp,sp,-24
9d00901c:	afbf0014 	sw	ra,20(sp)
9d009020:	0f402125 	jal	9d008494 <fputc>
9d009024:	00000000 	nop
9d009028:	8fbf0014 	lw	ra,20(sp)
9d00902c:	03e00008 	jr	ra
9d009030:	27bd0018 	addiu	sp,sp,24

Disassembly of section .rodata:

9d009034 <.rodata>:
9d009034:	66312e25 	0x66312e25
9d009038:	00000d0a 	0xd0a
9d00903c:	3ccccccd 	0x3ccccccd
9d009040:	40900000 	mtc0	s0,c0_index
9d009044:	40000000 	mfc0	zero,c0_index
9d009048:	40800000 	mtc0	zero,c0_index

Disassembly of section .text:

9d00904c <_nmi_handler>:
9d00904c:	401a6000 	mfc0	k0,c0_status
9d009050:	3c1bffbf 	lui	k1,0xffbf
9d009054:	377bffff 	ori	k1,k1,0xffff
9d009058:	035bd024 	and	k0,k0,k1
9d00905c:	409a6000 	mtc0	k0,c0_status
9d009060:	42000018 	eret

Disassembly of section .text._io_exit:

9d009064 <_io_exit>:
9d009064:	3c02a000 	lui	v0,0xa000
9d009068:	8c420000 	lw	v0,0(v0)
9d00906c:	24030001 	li	v1,1
9d009070:	03e00008 	jr	ra
9d009074:	ac430038 	sw	v1,56(v0)

Disassembly of section .rodata:

9d009078 <_io_funcs>:
9d009078:	9d008ef8 9d007ebc 9d0088cc 9d00894c     .....~......L...
9d009088:	9d008f2c                                ,...

Disassembly of section .text._io_exit:

9d00908c <.text._io_exit>:
9d00908c:	3c02a000 	lui	v0,0xa000
9d009090:	8c420000 	lw	v0,0(v0)
9d009094:	24030001 	li	v1,1
9d009098:	03e00008 	jr	ra
9d00909c:	ac430038 	sw	v1,56(v0)

Disassembly of section .rodata:

9d0090a0 <_io_strfuncs>:
9d0090a0:	9d0090d8 9d0090e0 9d0090e8 9d0090f0     ................
9d0090b0:	9d0090f8 40000000 3a83126f              .......@o..:

Disassembly of section .text._on_reset:

9d0090bc <_on_reset>:
9d0090bc:	03e00008 	jr	ra
9d0090c0:	00000000 	nop

Disassembly of section .text._on_bootstrap:

9d0090c4 <_on_bootstrap>:
9d0090c4:	03e00008 	jr	ra
9d0090c8:	00000000 	nop

Disassembly of section .rodata:

9d0090d0 <.rodata>:
9d0090d0:	ffffffff 	sdc3	$31,-1(ra)
9d0090d4:	7fefffff 	0x7fefffff

Disassembly of section .text._filbuf_string:

9d0090d8 <_filbuf_string>:
9d0090d8:	03e00008 	jr	ra
9d0090dc:	2402ffff 	li	v0,-1

Disassembly of section .text._flsbuf_string:

9d0090e0 <_flsbuf_string>:
9d0090e0:	03e00008 	jr	ra
9d0090e4:	00801021 	move	v0,a0

Disassembly of section .text._fflush_string:

9d0090e8 <_fflush_string>:
9d0090e8:	03e00008 	jr	ra
9d0090ec:	00001021 	move	v0,zero

Disassembly of section .text._fwrite_string:

9d0090f0 <_fwrite_string>:
9d0090f0:	03e00008 	jr	ra
9d0090f4:	00001021 	move	v0,zero

Disassembly of section .text._fsync_string:

9d0090f8 <_fsync_string>:
9d0090f8:	03e00008 	jr	ra
9d0090fc:	24020001 	li	v0,1

Disassembly of section .text.getpagesize:

9d009100 <getpagesize>:
9d009100:	03e00008 	jr	ra
9d009104:	24020080 	li	v0,128

Disassembly of section .rodata:

9d0090cc <.rodata>:
9d0090cc:	3f800000 	0x3f800000
